TN:
SF:/Library/Developer/CommandLineTools/SDKs/MacOSX13.1.sdk/usr/include/_ctype.h
FNL:0,135,138
FNA:0,0,_Z7isasciii
FNL:1,153,161
FNA:1,0,_Z8__istypeim
FNF:2
FNH:0
DA:135,0
DA:137,0
DA:153,0
DA:158,0
DA:159,0
LF:5
LH:0
end_of_record
TN:
SF:/Users/eric/Differ/differ/build/_deps/googletest-src/googletest/include/gtest/gtest-assertion-result.h
FNL:0,174,174
FNA:0,0,_ZNK7testing15AssertionResultcvbEv
FNL:1,183,185
FNA:1,0,_ZNK7testing15AssertionResult7messageEv
FNL:2,187,187
FNA:2,0,_ZNK7testing15AssertionResult15failure_messageEv
FNF:3
FNH:0
DA:174,0
DA:183,0
DA:184,0
DA:187,0
LF:4
LH:0
end_of_record
TN:
SF:/Users/eric/Differ/differ/build/_deps/googletest-src/googletest/include/gtest/gtest-message.h
FNF:0
FNH:0
LF:0
LH:0
end_of_record
TN:
SF:/Users/eric/Differ/differ/build/_deps/googletest-src/googletest/include/gtest/gtest-printers.h
FNL:0,1002,1007
FNA:0,0,_ZN7testing8internal14UniversalPrintINSt7__cxx1112basic_stringIcSt11char_traitsIcESaIcEEEEEvRKT_PSo
FNL:1,1042,1046
FNA:1,0,_ZN7testing13PrintToStringINSt7__cxx1112basic_stringIcSt11char_traitsIcESaIcEEEEES6_RKT_
FNA:1,0,_ZN7testing13PrintToStringIPKcEENSt7__cxx1112basic_stringIcSt11char_traitsIcESaIcEEERKT_
FNL:2,332,334
FNA:2,0,_ZN7testing8internal19FormatForComparisonINSt7__cxx1112basic_stringIcSt11char_traitsIcESaIcEEEA1022_cE6FormatERKS7_
FNA:2,0,_ZN7testing8internal19FormatForComparisonINSt7__cxx1112basic_stringIcSt11char_traitsIcESaIcEEEA185_cE6FormatERKS7_
FNA:2,0,_ZN7testing8internal19FormatForComparisonINSt7__cxx1112basic_stringIcSt11char_traitsIcESaIcEEEA80_cE6FormatERKS7_
FNL:3,341,343
FNA:3,0,_ZN7testing8internal19FormatForComparisonIA1022_cNSt7__cxx1112basic_stringIcSt11char_traitsIcESaIcEEEE6FormatEPKc
FNA:3,0,_ZN7testing8internal19FormatForComparisonIA185_cNSt7__cxx1112basic_stringIcSt11char_traitsIcESaIcEEEE6FormatEPKc
FNA:3,0,_ZN7testing8internal19FormatForComparisonIA80_cNSt7__cxx1112basic_stringIcSt11char_traitsIcESaIcEEEE6FormatEPKc
FNL:4,386,386
FNA:4,0,_ZN7testing8internal19FormatForComparisonIPKcNSt7__cxx1112basic_stringIcSt11char_traitsIcESaIcEEEE6FormatES3_
FNL:5,412,415
FNA:5,0,_ZN7testing8internal33FormatForComparisonFailureMessageIA1022_cNSt7__cxx1112basic_stringIcSt11char_traitsIcESaIcEEEEES8_RKT_RKT0_
FNA:5,0,_ZN7testing8internal33FormatForComparisonFailureMessageIA185_cNSt7__cxx1112basic_stringIcSt11char_traitsIcESaIcEEEEES8_RKT_RKT0_
FNA:5,0,_ZN7testing8internal33FormatForComparisonFailureMessageIA80_cNSt7__cxx1112basic_stringIcSt11char_traitsIcESaIcEEEEES8_RKT_RKT0_
FNA:5,0,_ZN7testing8internal33FormatForComparisonFailureMessageINSt7__cxx1112basic_stringIcSt11char_traitsIcESaIcEEEA1022_cEES7_RKT_RKT0_
FNA:5,0,_ZN7testing8internal33FormatForComparisonFailureMessageINSt7__cxx1112basic_stringIcSt11char_traitsIcESaIcEEEA185_cEES7_RKT_RKT0_
FNA:5,0,_ZN7testing8internal33FormatForComparisonFailureMessageINSt7__cxx1112basic_stringIcSt11char_traitsIcESaIcEEEA80_cEES7_RKT_RKT0_
FNL:6,554,556
FNA:6,0,_ZN7testing8internal7PrintToERKNSt7__cxx1112basic_stringIcSt11char_traitsIcESaIcEEEPSo
FNL:7,693,703
FNA:7,0,_ZN7testing8internal16UniversalPrinterINSt7__cxx1112basic_stringIcSt11char_traitsIcESaIcEEEE5PrintERKS7_PSo
FNL:8,883,885
FNA:8,0,_ZN7testing8internal21UniversalTersePrinterINSt7__cxx1112basic_stringIcSt11char_traitsIcESaIcEEEE5PrintERKS7_PSo
FNL:9,911,917
FNA:9,0,_ZN7testing8internal21UniversalTersePrinterIPKcE5PrintES3_PSo
FNF:10
FNH:0
DA:332,0
DA:333,0
DA:341,0
DA:342,0
DA:386,0
DA:412,0
DA:414,0
DA:554,0
DA:555,0
DA:556,0
DA:693,0
DA:702,0
DA:703,0
DA:883,0
DA:884,0
DA:885,0
DA:911,0
DA:912,0
DA:913,0
DA:915,0
DA:917,0
DA:1002,0
DA:1006,0
DA:1007,0
DA:1042,0
DA:1043,0
DA:1044,0
DA:1045,0
DA:1046,0
LF:29
LH:0
end_of_record
TN:
SF:/Users/eric/Differ/differ/build/_deps/googletest-src/googletest/include/gtest/gtest.h
FNL:0,1349,1355
FNA:0,0,_ZN7testing8internal18CmpHelperEQFailureINSt7__cxx1112basic_stringIcSt11char_traitsIcESaIcEEEA1022_cEENS_15AssertionResultEPKcSB_RKT_RKT0_
FNA:0,0,_ZN7testing8internal18CmpHelperEQFailureINSt7__cxx1112basic_stringIcSt11char_traitsIcESaIcEEEA185_cEENS_15AssertionResultEPKcSB_RKT_RKT0_
FNA:0,0,_ZN7testing8internal18CmpHelperEQFailureINSt7__cxx1112basic_stringIcSt11char_traitsIcESaIcEEEA80_cEENS_15AssertionResultEPKcSB_RKT_RKT0_
FNL:1,1366,1374
FNA:1,0,_ZN7testing8internal11CmpHelperEQINSt7__cxx1112basic_stringIcSt11char_traitsIcESaIcEEEA1022_cEENS_15AssertionResultEPKcSB_RKT_RKT0_
FNA:1,0,_ZN7testing8internal11CmpHelperEQINSt7__cxx1112basic_stringIcSt11char_traitsIcESaIcEEEA185_cEENS_15AssertionResultEPKcSB_RKT_RKT0_
FNA:1,0,_ZN7testing8internal11CmpHelperEQINSt7__cxx1112basic_stringIcSt11char_traitsIcESaIcEEEA80_cEENS_15AssertionResultEPKcSB_RKT_RKT0_
FNL:2,1385,1389
FNA:2,0,_ZN7testing8internal8EqHelper7CompareINSt7__cxx1112basic_stringIcSt11char_traitsIcESaIcEEEA1022_cLPv0EEENS_15AssertionResultEPKcSD_RKT_RKT0_
FNA:2,0,_ZN7testing8internal8EqHelper7CompareINSt7__cxx1112basic_stringIcSt11char_traitsIcESaIcEEEA185_cLPv0EEENS_15AssertionResultEPKcSD_RKT_RKT0_
FNA:2,0,_ZN7testing8internal8EqHelper7CompareINSt7__cxx1112basic_stringIcSt11char_traitsIcESaIcEEEA80_cLPv0EEENS_15AssertionResultEPKcSD_RKT_RKT0_
FNL:3,255,255
FNA:3,0,_ZN7testing4Test14SetUpTestSuiteEv
FNL:4,263,263
FNA:4,0,_ZN7testing4Test17TearDownTestSuiteEv
FNL:5,268,268
FNA:5,0,_ZN7testing4Test16TearDownTestCaseEv
FNL:6,269,269
FNA:6,0,_ZN7testing4Test13SetUpTestCaseEv
FNL:7,350,350
FNA:7,0,_ZN7testing4Test5SetupEv
FNF:8
FNH:0
DA:255,0
DA:263,0
DA:268,0
DA:269,0
DA:350,0
DA:1349,0
DA:1353,0
DA:1354,0
DA:1366,0
DA:1369,0
DA:1370,0
DA:1373,0
DA:1385,0
DA:1388,0
LF:14
LH:0
end_of_record
TN:
SF:/Users/eric/Differ/differ/build/_deps/googletest-src/googletest/include/gtest/internal/gtest-internal.h
FNL:0,451,451
FNA:0,0,_ZN7testing8internal15TestFactoryBaseD2Ev
FNL:1,458,458
FNA:1,2,_ZN7testing8internal15TestFactoryBaseC2Ev
FNL:2,470,470
FNA:2,0,_ZN7testing8internal15TestFactoryImplI60Class_DifferParser_differ_files_can_be_parsed_correctly_TestE10CreateTestEv
FNA:2,0,_ZN7testing8internal15TestFactoryImplI68Class_LocationParser_test_that_the_loc_file_is_parsed_correctly_TestE10CreateTestEv
FNL:3,491,492
FNA:3,0,_ZN7testing8internal12CodeLocationC1ERKNSt7__cxx1112basic_stringIcSt11char_traitsIcESaIcEEEi
FNL:4,504,507
FNA:4,8,_ZN7testing8internal19GetNotDefaultOrNullEPFvvES2_
FNL:5,519,538
FNA:5,2,_ZN7testing8internal16SuiteApiResolverINS_4TestEE19GetSetUpCaseOrSuiteEPKci
FNL:6,540,559
FNA:6,2,_ZN7testing8internal16SuiteApiResolverINS_4TestEE22GetTearDownCaseOrSuiteEPKci
FNF:7
FNH:4
DA:451,0
DA:458,2
DA:470,0
DA:491,0
DA:492,0
DA:504,8
DA:506,8
DA:519,2
DA:523,2
DA:525,2
DA:527,2
DA:530,0
DA:532,2
DA:540,2
DA:544,2
DA:546,2
DA:548,2
DA:551,0
DA:553,2
LF:19
LH:13
end_of_record
TN:
SF:/Users/eric/Differ/differ/build/_deps/googletest-src/googletest/include/gtest/internal/gtest-port.h
FNL:0,970,970
FNA:0,0,_ZN7testing8internal8GTestLog9GetStreamEv
FNF:1
FNH:0
DA:970,0
LF:1
LH:0
end_of_record
TN:
SF:/Users/eric/Differ/differ/build/vcpkg_installed/x64-osx/include/termcolor/termcolor.hpp
FNL:0,109,119
FNA:0,0,_ZN9termcolor4darkIcEERSt13basic_ostreamIT_St11char_traitsIS2_EES6_
FNL:1,227,237
FNA:1,0,_ZN9termcolor5colorILh0ELh0ELh0EcEERSt13basic_ostreamIT2_St11char_traitsIS2_EES6_
FNL:2,623,637
FNA:2,0,_ZN9termcolor8on_whiteIcEERSt13basic_ostreamIT_St11char_traitsIS2_EES6_
FNL:3,782,786
FNA:3,0,_ZN9termcolor9_internal14colorize_indexEv
FNL:4,792,800
FNA:4,0,_ZN9termcolor9_internal19get_standard_streamERKSo
FNL:5,82,93
FNA:5,0,_ZN9termcolor5resetIcEERSt13basic_ostreamIT_St11char_traitsIS2_EES6_
FNL:6,820,823
FNA:6,0,_ZN9termcolor9_internal12is_colorizedIcEEbRSt13basic_ostreamIT_St11char_traitsIS3_EE
FNL:7,828,846
FNA:7,0,_ZN9termcolor9_internal7is_attyIcEEbRKSt13basic_ostreamIT_St11char_traitsIS3_EE
FNL:8,96,106
FNA:8,0,_ZN9termcolor4boldIcEERSt13basic_ostreamIT_St11char_traitsIS2_EES6_
FNF:9
FNH:0
DA:82,0
DA:84,0
DA:87,0
DA:92,0
DA:96,0
DA:98,0
DA:101,0
DA:105,0
DA:109,0
DA:111,0
DA:114,0
DA:118,0
DA:227,0
DA:229,0
DA:232,0
DA:236,0
DA:623,0
DA:625,0
DA:628,0
DA:636,0
DA:782,0
DA:784,0
DA:785,0
DA:792,0
DA:794,0
DA:795,0
DA:796,0
DA:797,0
DA:799,0
DA:820,0
DA:822,0
DA:828,0
DA:830,0
DA:836,0
DA:837,0
DA:840,0
LF:36
LH:0
end_of_record
TN:
SF:/Users/eric/Differ/differ/include/DifferParser/DifferParser.hpp
FNF:0
FNH:0
LF:0
LH:0
end_of_record
TN:
SF:/Users/eric/Differ/differ/include/LocationParser/LocationParser.hpp
FNF:0
FNH:0
LF:0
LH:0
end_of_record
TN:
SF:/Users/eric/Differ/differ/src/DifferParser/DifferParser.cpp
FNL:0,153,162
FNA:0,0,_ZN12DifferParser10appendLineERKNSt7__cxx114listINS0_12basic_stringIcSt11char_traitsIcESaIcEEESaIS6_EEERKS6_
FNL:1,24,24
FNA:1,0,_ZN12DifferParserC1ERNSt7__cxx114listINS0_12basic_stringIcSt11char_traitsIcESaIcEEESaIS6_EEERSt13unordered_mapIS6_S8_St4hashIS6_ESt8equal_toIS6_ESaISt4pairIKS6_S8_EEE
FNA:1,0,_ZN12DifferParserC2ERNSt7__cxx114listINS0_12basic_stringIcSt11char_traitsIcESaIcEEESaIS6_EEERSt13unordered_mapIS6_S8_St4hashIS6_ESt8equal_toIS6_ESaISt4pairIKS6_S8_EEE
FNL:2,26,58
FNA:2,0,_ZN12DifferParser8scanLineERNSt7__cxx1112basic_stringIcSt11char_traitsIcESaIcEEE
FNL:3,60,62
FNA:3,0,_ZNK12DifferParser9getDifferB5cxx11Ev
FNL:4,64,68
FNA:4,0,_ZN12DifferParser12initPropertyEv
FNL:5,70,151
FNA:5,0,_ZN12DifferParser8dealCharEcRKNSt7__cxx1112basic_stringIcSt11char_traitsIcESaIcEEE
FNF:6
FNH:0
DA:24,0
DA:26,0
DA:27,0
DA:28,0
DA:29,0
DA:31,0
DA:33,0
DA:34,0
DA:36,0
DA:37,0
DA:38,0
DA:39,0
DA:40,0
DA:41,0
DA:42,0
DA:43,0
DA:44,0
DA:45,0
DA:46,0
DA:47,0
DA:48,0
DA:49,0
DA:50,0
DA:51,0
DA:52,0
DA:54,0
DA:55,0
DA:57,0
DA:58,0
DA:60,0
DA:61,0
DA:64,0
DA:65,0
DA:66,0
DA:67,0
DA:68,0
DA:70,0
DA:71,0
DA:72,0
DA:73,0
DA:74,0
DA:75,0
DA:76,0
DA:77,0
DA:78,0
DA:79,0
DA:80,0
DA:81,0
DA:82,0
DA:83,0
DA:85,0
DA:86,0
DA:87,0
DA:88,0
DA:90,0
DA:91,0
DA:92,0
DA:93,0
DA:95,0
DA:97,0
DA:98,0
DA:99,0
DA:100,0
DA:102,0
DA:104,0
DA:105,0
DA:106,0
DA:107,0
DA:108,0
DA:110,0
DA:112,0
DA:113,0
DA:114,0
DA:115,0
DA:117,0
DA:119,0
DA:120,0
DA:121,0
DA:122,0
DA:123,0
DA:124,0
DA:125,0
DA:126,0
DA:127,0
DA:128,0
DA:129,0
DA:132,0
DA:135,0
DA:136,0
DA:137,0
DA:139,0
DA:140,0
DA:141,0
DA:143,0
DA:144,0
DA:145,0
DA:146,0
DA:147,0
DA:148,0
DA:150,0
DA:153,0
DA:154,0
DA:155,0
DA:156,0
DA:158,0
DA:159,0
DA:160,0
DA:161,0
DA:162,0
LF:109
LH:0
end_of_record
TN:
SF:/Users/eric/Differ/differ/src/LocationParser/LocationParser.cpp
FNL:0,119,125
FNA:0,0,_ZNK14LocationParser11getLocationB5cxx11Ev
FNL:1,127,138
FNA:1,0,_ZN14LocationParser11appendValueEv
FNL:2,140,151
FNA:2,0,_ZN14LocationParser11getFullListB5cxx11Ev
FNL:3,28,28
FNA:3,0,_ZN14LocationParserC1Ev
FNA:3,0,_ZN14LocationParserC2Ev
FNL:4,30,37
FNA:4,0,_ZN14LocationParser12initPropertyEv
FNL:5,39,65
FNA:5,0,_ZN14LocationParser8scanLineERKNSt7__cxx1112basic_stringIcSt11char_traitsIcESaIcEEE
FNL:6,68,117
FNA:6,0,_ZN14LocationParser8dealCharEc
FNF:7
FNH:0
DA:28,0
DA:30,0
DA:31,0
DA:32,0
DA:33,0
DA:34,0
DA:35,0
DA:36,0
DA:37,0
DA:39,0
DA:40,0
DA:41,0
DA:42,0
DA:44,0
DA:45,0
DA:46,0
DA:47,0
DA:48,0
DA:49,0
DA:50,0
DA:51,0
DA:52,0
DA:53,0
DA:54,0
DA:55,0
DA:56,0
DA:57,0
DA:58,0
DA:60,0
DA:62,0
DA:64,0
DA:65,0
DA:68,0
DA:69,0
DA:70,0
DA:71,0
DA:72,0
DA:74,0
DA:76,0
DA:77,0
DA:78,0
DA:79,0
DA:80,0
DA:82,0
DA:84,0
DA:85,0
DA:86,0
DA:87,0
DA:89,0
DA:91,0
DA:92,0
DA:93,0
DA:94,0
DA:96,0
DA:98,0
DA:99,0
DA:100,0
DA:101,0
DA:102,0
DA:103,0
DA:104,0
DA:105,0
DA:106,0
DA:107,0
DA:108,0
DA:109,0
DA:110,0
DA:111,0
DA:113,0
DA:114,0
DA:115,0
DA:117,0
DA:119,0
DA:120,0
DA:121,0
DA:123,0
DA:127,0
DA:128,0
DA:129,0
DA:131,0
DA:132,0
DA:133,0
DA:134,0
DA:135,0
DA:137,0
DA:138,0
DA:140,0
DA:141,0
DA:142,0
DA:144,0
DA:145,0
DA:146,0
DA:147,0
DA:149,0
LF:94
LH:0
end_of_record
TN:
SF:/Users/eric/Differ/differ/src/Parser/Parser.cpp
FNL:0,20,20
FNA:0,0,_ZN6ParserC1Ev
FNA:0,0,_ZN6ParserC2Ev
FNL:1,22,22
FNA:1,0,_ZN6ParserD1Ev
FNA:1,0,_ZN6ParserD2Ev
FNL:2,23,28
FNA:2,0,_ZN6Parser9obtainKeyEv
FNL:3,30,38
FNA:3,0,_Z8getWidthi
FNL:4,40,51
FNA:4,0,_ZN6Parser9showErrorERKNSt7__cxx1112basic_stringIcSt11char_traitsIcESaIcEEES7_
FNF:5
FNH:0
DA:20,0
DA:22,0
DA:23,0
DA:24,0
DA:25,0
DA:27,0
DA:28,0
DA:30,0
DA:31,0
DA:32,0
DA:33,0
DA:34,0
DA:35,0
DA:37,0
DA:40,0
DA:41,0
DA:42,0
DA:43,0
DA:44,0
DA:45,0
DA:47,0
DA:48,0
DA:49,0
DA:50,0
DA:51,0
LF:25
LH:0
end_of_record
TN:
SF:/Users/eric/Differ/differ/test/DifferParser/DifferParser_test.cpp
FNL:0,16,37
FNA:0,0,_ZN60Class_DifferParser_differ_files_can_be_parsed_correctly_Test8TestBodyEv
FNA:0,0,_ZN60Class_DifferParser_differ_files_can_be_parsed_correctly_TestC1Ev
FNA:0,0,_ZN60Class_DifferParser_differ_files_can_be_parsed_correctly_TestD0Ev
FNA:0,0,_ZN60Class_DifferParser_differ_files_can_be_parsed_correctly_TestD1Ev
FNF:1
FNH:0
DA:16,0
DA:17,0
DA:18,0
DA:19,0
DA:20,0
DA:21,0
DA:23,0
DA:24,0
DA:25,0
DA:26,0
DA:27,0
DA:28,0
DA:29,0
DA:31,0
DA:32,0
DA:33,0
DA:34,0
DA:35,0
DA:36,0
DA:37,0
LF:20
LH:0
end_of_record
TN:
SF:/Users/eric/Differ/differ/test/LocationParser/LocationParser_test.cpp
FNL:0,12,35
FNA:0,0,_ZN68Class_LocationParser_test_that_the_loc_file_is_parsed_correctly_Test8TestBodyEv
FNA:0,0,_ZN68Class_LocationParser_test_that_the_loc_file_is_parsed_correctly_TestC1Ev
FNA:0,0,_ZN68Class_LocationParser_test_that_the_loc_file_is_parsed_correctly_TestD0Ev
FNA:0,0,_ZN68Class_LocationParser_test_that_the_loc_file_is_parsed_correctly_TestD1Ev
FNF:1
FNH:0
DA:12,0
DA:13,0
DA:14,0
DA:15,0
DA:16,0
DA:17,0
DA:19,0
DA:20,0
DA:21,0
DA:23,0
DA:24,0
DA:25,0
DA:26,0
DA:27,0
DA:28,0
DA:30,0
DA:33,0
DA:34,0
DA:35,0
LF:19
LH:0
end_of_record
TN:
SF:/Users/eric/Differ/differ/test/serializeStringListMap/serializeStringListMap.cpp
FNL:0,7,24
FNA:0,0,_Z22serializeStringListMapRSt13unordered_mapINSt7__cxx1112basic_stringIcSt11char_traitsIcESaIcEEENS0_4listIS5_SaIS5_EEESt4hashIS5_ESt8equal_toIS5_ESaISt4pairIKS5_S8_EEE
FNF:1
FNH:0
DA:7,0
DA:8,0
DA:9,0
DA:10,0
DA:11,0
DA:12,0
DA:13,0
DA:14,0
DA:15,0
DA:17,0
DA:20,0
DA:21,0
DA:22,0
DA:23,0
DA:24,0
LF:15
LH:0
end_of_record
TN:
SF:/opt/local/include/gcc14/c++/bit
FNL:0,201,243
FNA:0,0,_ZSt13__countl_zeroImEiT_
FNL:1,371,375
FNA:1,0,_ZSt11__bit_widthImEiT_
FNF:2
FNH:0
DA:201,0
DA:204,0
DA:206,0
DA:207,0
DA:209,0
DA:210,0
DA:211,0
DA:220,0
DA:221,0
DA:371,0
DA:373,0
DA:374,0
LF:12
LH:0
end_of_record
TN:
SF:/opt/local/include/gcc14/c++/bits/alloc_traits.h
FNF:0
FNH:0
DA:478,0
DA:513,0
DA:534,3
DA:538,3
DA:558,3
DA:570,19
DA:584,4
DA:657,0
DA:671,0
DA:718,0
DA:751,0
DA:755,0
DA:944,16
DA:945,16
LF:14
LH:7
end_of_record
TN:
SF:/opt/local/include/gcc14/c++/bits/allocated_ptr.h
FNL:0,53,55
FNA:0,0,_ZNSt15__allocated_ptrISaISt10_List_nodeINSt7__cxx1112basic_stringIcSt11char_traitsIcESaIcEEEEEEC1ERS8_PS7_
FNA:0,0,_ZNSt15__allocated_ptrISaISt10_List_nodeIcEEEC1ERS2_PS1_
FNA:0,0,_ZNSt15__allocated_ptrISaISt23_Sp_counted_ptr_inplaceINSt8__detail4_NFAINSt7__cxx1112regex_traitsIcEEEESaIvELN9__gnu_cxx12_Lock_policyE2EEEEC1ERSB_PSA_
FNL:1,71,75
FNA:1,0,_ZNSt15__allocated_ptrISaISt10_List_nodeINSt7__cxx1112basic_stringIcSt11char_traitsIcESaIcEEEEEED1Ev
FNA:1,0,_ZNSt15__allocated_ptrISaISt10_List_nodeIcEEED1Ev
FNA:1,0,_ZNSt15__allocated_ptrISaISt23_Sp_counted_ptr_inplaceINSt8__detail4_NFAINSt7__cxx1112regex_traitsIcEEEESaIvELN9__gnu_cxx12_Lock_policyE2EEEED1Ev
FNL:2,79,83
FNA:2,0,_ZNSt15__allocated_ptrISaISt10_List_nodeINSt7__cxx1112basic_stringIcSt11char_traitsIcESaIcEEEEEEaSEDn
FNA:2,0,_ZNSt15__allocated_ptrISaISt10_List_nodeIcEEEaSEDn
FNA:2,0,_ZNSt15__allocated_ptrISaISt23_Sp_counted_ptr_inplaceINSt8__detail4_NFAINSt7__cxx1112regex_traitsIcEEEESaIvELN9__gnu_cxx12_Lock_policyE2EEEEaSEDn
FNL:3,86,86
FNA:3,0,_ZNSt15__allocated_ptrISaISt23_Sp_counted_ptr_inplaceINSt8__detail4_NFAINSt7__cxx1112regex_traitsIcEEEESaIvELN9__gnu_cxx12_Lock_policyE2EEEE3getEv
FNL:4,96,99
FNA:4,0,_ZSt18__allocate_guardedISaISt23_Sp_counted_ptr_inplaceINSt8__detail4_NFAINSt7__cxx1112regex_traitsIcEEEESaIvELN9__gnu_cxx12_Lock_policyE2EEEESt15__allocated_ptrIT_ERSD_
FNF:5
FNH:0
DA:53,0
DA:54,0
DA:55,0
DA:71,0
DA:73,0
DA:74,0
DA:75,0
DA:79,0
DA:81,0
DA:82,0
DA:86,0
DA:96,0
DA:98,0
LF:13
LH:0
end_of_record
TN:
SF:/opt/local/include/gcc14/c++/bits/allocator.h
FNF:0
FNH:0
DA:161,14
DA:166,7
DA:176,0
DA:182,4
DA:221,0
LF:5
LH:3
end_of_record
TN:
SF:/opt/local/include/gcc14/c++/bits/basic_string.h
FNL:0,3573,3586
FNA:0,2,_ZSt12__str_concatINSt7__cxx1112basic_stringIcSt11char_traitsIcESaIcEEEET_PKNS6_10value_typeENS6_9size_typeES9_SA_RKNS6_14allocator_typeE
FNL:1,3616,3624
FNA:1,0,_ZStplIcSt11char_traitsIcESaIcEENSt7__cxx1112basic_stringIT_T0_T1_EEPKS5_RKS8_
FNL:2,3733,3735
FNA:2,40,_ZStplIcSt11char_traitsIcESaIcEENSt7__cxx1112basic_stringIT_T0_T1_EEOS8_PKS5_
FNL:3,3755,3761
FNA:3,0,_ZSteqIcSt11char_traitsIcESaIcEEbRKNSt7__cxx1112basic_stringIT_T0_T1_EESA_
FNL:4,3772,3777
FNA:4,12,_ZSteqIcSt11char_traitsIcESaIcEEbRKNSt7__cxx1112basic_stringIT_T0_T1_EEPKS5_
FNL:5,3956,3959
FNA:5,0,_ZStleIcSt11char_traitsIcESaIcEEbRKNSt7__cxx1112basic_stringIT_T0_T1_EESA_
FNL:6,4616,4617
FNA:6,0,_ZNKSt15__str_hash_baseIcSaIcENSt7__cxx1112basic_stringIcSt11char_traitsIcES0_EEEclERKS5_
FNL:7,646,655
FNA:7,66,_ZNSt7__cxx1112basic_stringIcSt11char_traitsIcESaIcEEC1IS3_EEPKcRKS3_
FNL:8,669,671
FNA:8,0,_ZNSt7__cxx1112basic_stringIcSt11char_traitsIcESaIcEEC1IS3_EEmcRKS3_
FNL:9,765,775
FNA:9,0,_ZNSt7__cxx1112basic_stringIcSt11char_traitsIcESaIcEEC1IN9__gnu_cxx17__normal_iteratorIPcS4_EEvEET_SA_RKS3_
FNA:9,0,_ZNSt7__cxx1112basic_stringIcSt11char_traitsIcESaIcEEC1IPcvEET_S7_RKS3_
FNF:10
FNH:4
DA:360,62
DA:646,66
DA:647,66
DA:650,66
DA:651,0
DA:653,66
DA:654,66
DA:655,66
DA:669,0
DA:670,0
DA:671,0
DA:765,0
DA:767,0
DA:770,0
DA:775,0
DA:3573,2
DA:3581,2
DA:3582,2
DA:3583,2
DA:3584,2
DA:3585,2
DA:3586,0
DA:3616,0
DA:3623,0
DA:3733,40
DA:3735,40
DA:3755,0
DA:3759,0
DA:3760,0
DA:3772,12
DA:3775,12
DA:3776,12
DA:3956,0
DA:3959,0
DA:4616,0
DA:4617,0
LF:36
LH:18
end_of_record
TN:
SF:/opt/local/include/gcc14/c++/bits/basic_string.tcc
FNL:0,221,252
FNA:0,0,_ZNSt7__cxx1112basic_stringIcSt11char_traitsIcESaIcEE12_M_constructIN9__gnu_cxx17__normal_iteratorIPcS4_EEEEvT_SA_St20forward_iterator_tag
FNA:0,78,_ZNSt7__cxx1112basic_stringIcSt11char_traitsIcESaIcEE12_M_constructIPKcEEvT_S8_St20forward_iterator_tag
FNA:0,16,_ZNSt7__cxx1112basic_stringIcSt11char_traitsIcESaIcEE12_M_constructIPcEEvT_S7_St20forward_iterator_tag
FNL:1,239,239
FNA:1,0,_ZZNSt7__cxx1112basic_stringIcSt11char_traitsIcESaIcEE12_M_constructIN9__gnu_cxx17__normal_iteratorIPcS4_EEEEvT_SA_St20forward_iterator_tagEN6_GuardC1EPS4_
FNA:1,78,_ZZNSt7__cxx1112basic_stringIcSt11char_traitsIcESaIcEE12_M_constructIPKcEEvT_S8_St20forward_iterator_tagEN6_GuardC1EPS4_
FNA:1,16,_ZZNSt7__cxx1112basic_stringIcSt11char_traitsIcESaIcEE12_M_constructIPcEEvT_S7_St20forward_iterator_tagEN6_GuardC1EPS4_
FNL:2,242,242
FNA:2,0,_ZZNSt7__cxx1112basic_stringIcSt11char_traitsIcESaIcEE12_M_constructIN9__gnu_cxx17__normal_iteratorIPcS4_EEEEvT_SA_St20forward_iterator_tagEN6_GuardD1Ev
FNA:2,78,_ZZNSt7__cxx1112basic_stringIcSt11char_traitsIcESaIcEE12_M_constructIPKcEEvT_S8_St20forward_iterator_tagEN6_GuardD1Ev
FNA:2,16,_ZZNSt7__cxx1112basic_stringIcSt11char_traitsIcESaIcEE12_M_constructIPcEEvT_S7_St20forward_iterator_tagEN6_GuardD1Ev
FNF:3
FNH:3
DA:221,94
DA:225,94
DA:227,94
DA:229,32
DA:230,32
DA:239,94
DA:242,94
DA:245,94
DA:247,94
DA:249,94
DA:251,94
DA:252,94
LF:12
LH:12
end_of_record
TN:
SF:/opt/local/include/gcc14/c++/bits/char_traits.h
FNL:0,136,137
FNA:0,0,_ZN9__gnu_cxx11char_traitsIcE2eqERKcS3_
FNL:1,199,206
FNA:1,0,_ZN9__gnu_cxx11char_traitsIcE6lengthEPKc
FNL:2,358,363
FNA:2,0,_ZNSt11char_traitsIcE2ltERKcS2_
FNL:3,366,382
FNA:3,4,_ZNSt11char_traitsIcE7compareEPKcS2_m
FNL:4,385,392
FNA:4,80,_ZNSt11char_traitsIcE6lengthEPKc
FNF:5
FNH:2
DA:136,0
DA:137,0
DA:199,0
DA:202,0
DA:203,0
DA:204,0
DA:205,0
DA:358,0
DA:361,0
DA:362,0
DA:366,4
DA:368,4
DA:369,4
DA:371,0
DA:373,0
DA:374,0
DA:375,0
DA:376,0
DA:377,0
DA:378,0
DA:381,0
DA:385,80
DA:388,80
DA:389,0
DA:391,80
LF:25
LH:6
end_of_record
TN:
SF:/opt/local/include/gcc14/c++/bits/cpp_type_traits.h
FNL:0,607,608
FNA:0,0,_ZSt12__miter_baseIN9__gnu_cxx17__normal_iteratorIPKNSt7__cxx119sub_matchINS1_IPcNS2_12basic_stringIcSt11char_traitsIcESaIcEEEEEEESt6vectorISB_SaISB_EEEEET_SI_
FNA:0,0,_ZSt12__miter_baseIN9__gnu_cxx17__normal_iteratorIPKcSt6vectorIcSaIcEEEEET_S8_
FNA:0,0,_ZSt12__miter_baseIN9__gnu_cxx17__normal_iteratorIPcNSt7__cxx1112basic_stringIcSt11char_traitsIcESaIcEEEEEET_SA_
FNA:0,0,_ZSt12__miter_baseIN9__gnu_cxx17__normal_iteratorIPcSt6vectorIcSaIcEEEEET_S7_
FNA:0,0,_ZSt12__miter_baseIPKcET_S2_
FNA:0,0,_ZSt12__miter_baseIPNSt7__cxx119sub_matchIN9__gnu_cxx17__normal_iteratorIPcNS0_12basic_stringIcSt11char_traitsIcESaIcEEEEEEEET_SD_
FNA:0,0,_ZSt12__miter_baseIPPNSt8__detail9_StateSeqINSt7__cxx1112regex_traitsIcEEEEET_S8_
FNA:0,0,_ZSt12__miter_baseIPPlET_S2_
FNA:0,0,_ZSt12__miter_baseIPcET_S1_
FNF:1
FNH:0
DA:607,0
DA:608,0
LF:2
LH:0
end_of_record
TN:
SF:/opt/local/include/gcc14/c++/bits/deque.tcc
FNL:0,164,180
FNA:0,0,_ZNSt5dequeINSt8__detail9_StateSeqINSt7__cxx1112regex_traitsIcEEEESaIS5_EE12emplace_backIJS5_EEERS5_DpOT_
FNL:1,484,516
FNA:1,0,_ZNSt5dequeINSt8__detail9_StateSeqINSt7__cxx1112regex_traitsIcEEEESaIS5_EE16_M_push_back_auxIJRKS5_EEEvDpOT_
FNA:1,0,_ZNSt5dequeINSt8__detail9_StateSeqINSt7__cxx1112regex_traitsIcEEEESaIS5_EE16_M_push_back_auxIJS5_EEEvDpOT_
FNA:1,0,_ZNSt5dequeIlSaIlEE16_M_push_back_auxIJRKlEEEvDpOT_
FNL:2,560,568
FNA:2,0,_ZNSt5dequeINSt8__detail9_StateSeqINSt7__cxx1112regex_traitsIcEEEESaIS5_EE15_M_pop_back_auxEv
FNA:2,0,_ZNSt5dequeIlSaIlEE15_M_pop_back_auxEv
FNL:3,931,973
FNA:3,0,_ZNSt5dequeINSt8__detail9_StateSeqINSt7__cxx1112regex_traitsIcEEEESaIS5_EE17_M_reallocate_mapEmb
FNA:3,0,_ZNSt5dequeIlSaIlEE17_M_reallocate_mapEmb
FNF:4
FNH:0
DA:164,0
DA:167,0
DA:168,0
DA:170,0
DA:173,0
DA:176,0
DA:178,0
DA:484,0
DA:492,0
DA:493,0
DA:496,0
DA:497,0
DA:501,0
DA:507,0
DA:509,0
DA:516,0
DA:560,0
DA:563,0
DA:564,0
DA:565,0
DA:566,0
DA:568,0
DA:931,0
DA:934,0
DA:935,0
DA:936,0
DA:939,0
DA:941,0
DA:942,0
DA:943,0
DA:944,0
DA:945,0
DA:946,0
DA:949,0
DA:950,0
DA:951,0
DA:955,0
DA:956,0
DA:959,0
DA:960,0
DA:961,0
DA:962,0
DA:963,0
DA:965,0
DA:967,0
DA:968,0
DA:971,0
DA:972,0
DA:973,0
LF:49
LH:0
end_of_record
TN:
SF:/opt/local/include/gcc14/c++/bits/functional_hash.h
FNL:0,204,206
FNA:0,0,_ZNSt10_Hash_impl4hashEPKvmm
FNF:1
FNH:0
DA:204,0
DA:206,0
LF:2
LH:0
end_of_record
TN:
SF:/opt/local/include/gcc14/c++/bits/hashtable.h
FNL:0,1415,1456
FNA:0,0,_ZNSt10_HashtableINSt7__cxx1112basic_stringIcSt11char_traitsIcESaIcEEESt4pairIKS5_NS0_4listIS5_SaIS5_EEEESaISB_ENSt8__detail10_Select1stESt8equal_toIS5_ESt4hashIS5_ENSD_18_Mod_range_hashingENSD_20_Default_ranged_hashENSD_20_Prime_rehash_policyENSD_17_Hashtable_traitsILb1ELb0ELb1EEEE9_M_assignIRKSO_NSD_10_AllocNodeISaINSD_10_Hash_nodeISB_Lb1EEEEEEEEvOT_RKT0_
FNL:1,1532,1548
FNA:1,0,_ZNSt10_HashtableINSt7__cxx1112basic_stringIcSt11char_traitsIcESaIcEEESt4pairIKS5_NS0_4listIS5_SaIS5_EEEESaISB_ENSt8__detail10_Select1stESt8equal_toIS5_ESt4hashIS5_ENSD_18_Mod_range_hashingENSD_20_Default_ranged_hashENSD_20_Prime_rehash_policyENSD_17_Hashtable_traitsILb1ELb0ELb1EEEEC1ERKSO_
FNL:2,1654,1669
FNA:2,0,_ZNSt10_HashtableINSt7__cxx1112basic_stringIcSt11char_traitsIcESaIcEEESt4pairIKS5_NS0_4listIS5_SaIS5_EEEESaISB_ENSt8__detail10_Select1stESt8equal_toIS5_ESt4hashIS5_ENSD_18_Mod_range_hashingENSD_20_Default_ranged_hashENSD_20_Prime_rehash_policyENSD_17_Hashtable_traitsILb1ELb0ELb1EEEED1Ev
FNA:2,0,_ZNSt10_HashtableINSt7__cxx1112basic_stringIcSt11char_traitsIcESaIcEEESt4pairIKS5_bESaIS8_ENSt8__detail10_Select1stESt8equal_toIS5_ESt4hashIS5_ENSA_18_Mod_range_hashingENSA_20_Default_ranged_hashENSA_20_Prime_rehash_policyENSA_17_Hashtable_traitsILb1ELb0ELb1EEEED1Ev
FNL:3,1723,1739
FNA:3,0,_ZNSt10_HashtableINSt7__cxx1112basic_stringIcSt11char_traitsIcESaIcEEESt4pairIKS5_NS0_4listIS5_SaIS5_EEEESaISB_ENSt8__detail10_Select1stESt8equal_toIS5_ESt4hashIS5_ENSD_18_Mod_range_hashingENSD_20_Default_ranged_hashENSD_20_Prime_rehash_policyENSD_17_Hashtable_traitsILb1ELb0ELb1EEEE4findERS7_
FNL:4,2061,2083
FNA:4,0,_ZNKSt10_HashtableINSt7__cxx1112basic_stringIcSt11char_traitsIcESaIcEEESt4pairIKS5_NS0_4listIS5_SaIS5_EEEESaISB_ENSt8__detail10_Select1stESt8equal_toIS5_ESt4hashIS5_ENSD_18_Mod_range_hashingENSD_20_Default_ranged_hashENSD_20_Prime_rehash_policyENSD_17_Hashtable_traitsILb1ELb0ELb1EEEE19_M_find_before_nodeEmRS7_m
FNA:4,0,_ZNKSt10_HashtableINSt7__cxx1112basic_stringIcSt11char_traitsIcESaIcEEESt4pairIKS5_bESaIS8_ENSt8__detail10_Select1stESt8equal_toIS5_ESt4hashIS5_ENSA_18_Mod_range_hashingENSA_20_Default_ranged_hashENSA_20_Prime_rehash_policyENSA_17_Hashtable_traitsILb1ELb0ELb1EEEE19_M_find_before_nodeEmRS7_m
FNL:5,2224,2248
FNA:5,0,_ZNSt10_HashtableINSt7__cxx1112basic_stringIcSt11char_traitsIcESaIcEEESt4pairIKS5_NS0_4listIS5_SaIS5_EEEESaISB_ENSt8__detail10_Select1stESt8equal_toIS5_ESt4hashIS5_ENSD_18_Mod_range_hashingENSD_20_Default_ranged_hashENSD_20_Prime_rehash_policyENSD_17_Hashtable_traitsILb1ELb0ELb1EEEE21_M_insert_unique_nodeEmmPNSD_10_Hash_nodeISB_Lb1EEEm
FNA:5,0,_ZNSt10_HashtableINSt7__cxx1112basic_stringIcSt11char_traitsIcESaIcEEESt4pairIKS5_bESaIS8_ENSt8__detail10_Select1stESt8equal_toIS5_ESt4hashIS5_ENSA_18_Mod_range_hashingENSA_20_Default_ranged_hashENSA_20_Prime_rehash_policyENSA_17_Hashtable_traitsILb1ELb0ELb1EEEE21_M_insert_unique_nodeEmmPNSA_10_Hash_nodeIS8_Lb1EEEm
FNL:6,2580,2589
FNA:6,0,_ZNSt10_HashtableINSt7__cxx1112basic_stringIcSt11char_traitsIcESaIcEEESt4pairIKS5_NS0_4listIS5_SaIS5_EEEESaISB_ENSt8__detail10_Select1stESt8equal_toIS5_ESt4hashIS5_ENSD_18_Mod_range_hashingENSD_20_Default_ranged_hashENSD_20_Prime_rehash_policyENSD_17_Hashtable_traitsILb1ELb0ELb1EEEE5clearEv
FNA:6,0,_ZNSt10_HashtableINSt7__cxx1112basic_stringIcSt11char_traitsIcESaIcEEESt4pairIKS5_bESaIS8_ENSt8__detail10_Select1stESt8equal_toIS5_ESt4hashIS5_ENSA_18_Mod_range_hashingENSA_20_Default_ranged_hashENSA_20_Prime_rehash_policyENSA_17_Hashtable_traitsILb1ELb0ELb1EEEE5clearEv
FNL:7,2619,2653
FNA:7,0,_ZNSt10_HashtableINSt7__cxx1112basic_stringIcSt11char_traitsIcESaIcEEESt4pairIKS5_NS0_4listIS5_SaIS5_EEEESaISB_ENSt8__detail10_Select1stESt8equal_toIS5_ESt4hashIS5_ENSD_18_Mod_range_hashingENSD_20_Default_ranged_hashENSD_20_Prime_rehash_policyENSD_17_Hashtable_traitsILb1ELb0ELb1EEEE9_M_rehashEmSt17integral_constantIbLb1EE
FNA:7,0,_ZNSt10_HashtableINSt7__cxx1112basic_stringIcSt11char_traitsIcESaIcEEESt4pairIKS5_bESaIS8_ENSt8__detail10_Select1stESt8equal_toIS5_ESt4hashIS5_ENSA_18_Mod_range_hashingENSA_20_Default_ranged_hashENSA_20_Prime_rehash_policyENSA_17_Hashtable_traitsILb1ELb0ELb1EEEE9_M_rehashEmSt17integral_constantIbLb1EE
FNL:8,310,313
FNA:8,0,_ZNSt10_HashtableINSt7__cxx1112basic_stringIcSt11char_traitsIcESaIcEEESt4pairIKS5_NS0_4listIS5_SaIS5_EEEESaISB_ENSt8__detail10_Select1stESt8equal_toIS5_ESt4hashIS5_ENSD_18_Mod_range_hashingENSD_20_Default_ranged_hashENSD_20_Prime_rehash_policyENSD_17_Hashtable_traitsILb1ELb0ELb1EEEE12_Scoped_nodeC1IJRKSt21piecewise_construct_tSt5tupleIJRS7_EESU_IJEEEEEPNSD_16_Hashtable_allocISaINSD_10_Hash_nodeISB_Lb1EEEEEEDpOT_
FNA:8,0,_ZNSt10_HashtableINSt7__cxx1112basic_stringIcSt11char_traitsIcESaIcEEESt4pairIKS5_bESaIS8_ENSt8__detail10_Select1stESt8equal_toIS5_ESt4hashIS5_ENSA_18_Mod_range_hashingENSA_20_Default_ranged_hashENSA_20_Prime_rehash_policyENSA_17_Hashtable_traitsILb1ELb0ELb1EEEE12_Scoped_nodeC1IJRKSt21piecewise_construct_tSt5tupleIJRS7_EESR_IJEEEEEPNSA_16_Hashtable_allocISaINSA_10_Hash_nodeIS8_Lb1EEEEEEDpOT_
FNL:9,316,316
FNA:9,0,_ZNSt10_HashtableINSt7__cxx1112basic_stringIcSt11char_traitsIcESaIcEEESt4pairIKS5_NS0_4listIS5_SaIS5_EEEESaISB_ENSt8__detail10_Select1stESt8equal_toIS5_ESt4hashIS5_ENSD_18_Mod_range_hashingENSD_20_Default_ranged_hashENSD_20_Prime_rehash_policyENSD_17_Hashtable_traitsILb1ELb0ELb1EEEE12_Scoped_nodeD1Ev
FNA:9,0,_ZNSt10_HashtableINSt7__cxx1112basic_stringIcSt11char_traitsIcESaIcEEESt4pairIKS5_bESaIS8_ENSt8__detail10_Select1stESt8equal_toIS5_ESt4hashIS5_ENSA_18_Mod_range_hashingENSA_20_Default_ranged_hashENSA_20_Prime_rehash_policyENSA_17_Hashtable_traitsILb1ELb0ELb1EEEE12_Scoped_nodeD1Ev
FNL:10,329,330
FNA:10,0,_ZNSt10_HashtableINSt7__cxx1112basic_stringIcSt11char_traitsIcESaIcEEESt4pairIKS5_NS0_4listIS5_SaIS5_EEEESaISB_ENSt8__detail10_Select1stESt8equal_toIS5_ESt4hashIS5_ENSD_18_Mod_range_hashingENSD_20_Default_ranged_hashENSD_20_Prime_rehash_policyENSD_17_Hashtable_traitsILb1ELb0ELb1EEEE15__fwd_value_forIRKSO_EENSt13__conditionalIXsrSt19is_lvalue_referenceIT_E5valueEE4typeIRKSB_OSB_EERSB_
FNL:11,407,411
FNA:11,0,_ZNSt10_HashtableINSt7__cxx1112basic_stringIcSt11char_traitsIcESaIcEEESt4pairIKS5_NS0_4listIS5_SaIS5_EEEESaISB_ENSt8__detail10_Select1stESt8equal_toIS5_ESt4hashIS5_ENSD_18_Mod_range_hashingENSD_20_Default_ranged_hashENSD_20_Prime_rehash_policyENSD_17_Hashtable_traitsILb1ELb0ELb1EEEE16_M_update_bbeginEv
FNL:12,414,418
FNA:12,0,_ZNSt10_HashtableINSt7__cxx1112basic_stringIcSt11char_traitsIcESaIcEEESt4pairIKS5_NS0_4listIS5_SaIS5_EEEESaISB_ENSt8__detail10_Select1stESt8equal_toIS5_ESt4hashIS5_ENSD_18_Mod_range_hashingENSD_20_Default_ranged_hashENSD_20_Prime_rehash_policyENSD_17_Hashtable_traitsILb1ELb0ELb1EEEE16_M_update_bbeginEPNSD_10_Hash_nodeISB_Lb1EEE
FNL:13,421,422
FNA:13,0,_ZNKSt10_HashtableINSt7__cxx1112basic_stringIcSt11char_traitsIcESaIcEEESt4pairIKS5_NS0_4listIS5_SaIS5_EEEESaISB_ENSt8__detail10_Select1stESt8equal_toIS5_ESt4hashIS5_ENSD_18_Mod_range_hashingENSD_20_Default_ranged_hashENSD_20_Prime_rehash_policyENSD_17_Hashtable_traitsILb1ELb0ELb1EEEE21_M_uses_single_bucketEPPNSD_15_Hash_node_baseE
FNA:13,0,_ZNKSt10_HashtableINSt7__cxx1112basic_stringIcSt11char_traitsIcESaIcEEESt4pairIKS5_bESaIS8_ENSt8__detail10_Select1stESt8equal_toIS5_ESt4hashIS5_ENSA_18_Mod_range_hashingENSA_20_Default_ranged_hashENSA_20_Prime_rehash_policyENSA_17_Hashtable_traitsILb1ELb0ELb1EEEE21_M_uses_single_bucketEPPNSA_15_Hash_node_baseE
FNL:14,429,433
FNA:14,0,_ZNSt10_HashtableINSt7__cxx1112basic_stringIcSt11char_traitsIcESaIcEEESt4pairIKS5_NS0_4listIS5_SaIS5_EEEESaISB_ENSt8__detail10_Select1stESt8equal_toIS5_ESt4hashIS5_ENSD_18_Mod_range_hashingENSD_20_Default_ranged_hashENSD_20_Prime_rehash_policyENSD_17_Hashtable_traitsILb1ELb0ELb1EEEE22__small_size_thresholdEv
FNL:15,439,448
FNA:15,0,_ZNSt10_HashtableINSt7__cxx1112basic_stringIcSt11char_traitsIcESaIcEEESt4pairIKS5_NS0_4listIS5_SaIS5_EEEESaISB_ENSt8__detail10_Select1stESt8equal_toIS5_ESt4hashIS5_ENSD_18_Mod_range_hashingENSD_20_Default_ranged_hashENSD_20_Prime_rehash_policyENSD_17_Hashtable_traitsILb1ELb0ELb1EEEE19_M_allocate_bucketsEm
FNA:15,0,_ZNSt10_HashtableINSt7__cxx1112basic_stringIcSt11char_traitsIcESaIcEEESt4pairIKS5_bESaIS8_ENSt8__detail10_Select1stESt8equal_toIS5_ESt4hashIS5_ENSA_18_Mod_range_hashingENSA_20_Default_ranged_hashENSA_20_Prime_rehash_policyENSA_17_Hashtable_traitsILb1ELb0ELb1EEEE19_M_allocate_bucketsEm
FNL:16,451,457
FNA:16,0,_ZNSt10_HashtableINSt7__cxx1112basic_stringIcSt11char_traitsIcESaIcEEESt4pairIKS5_NS0_4listIS5_SaIS5_EEEESaISB_ENSt8__detail10_Select1stESt8equal_toIS5_ESt4hashIS5_ENSD_18_Mod_range_hashingENSD_20_Default_ranged_hashENSD_20_Prime_rehash_policyENSD_17_Hashtable_traitsILb1ELb0ELb1EEEE21_M_deallocate_bucketsEPPNSD_15_Hash_node_baseEm
FNA:16,0,_ZNSt10_HashtableINSt7__cxx1112basic_stringIcSt11char_traitsIcESaIcEEESt4pairIKS5_bESaIS8_ENSt8__detail10_Select1stESt8equal_toIS5_ESt4hashIS5_ENSA_18_Mod_range_hashingENSA_20_Default_ranged_hashENSA_20_Prime_rehash_policyENSA_17_Hashtable_traitsILb1ELb0ELb1EEEE21_M_deallocate_bucketsEPPNSA_15_Hash_node_baseEm
FNL:17,460,461
FNA:17,0,_ZNSt10_HashtableINSt7__cxx1112basic_stringIcSt11char_traitsIcESaIcEEESt4pairIKS5_NS0_4listIS5_SaIS5_EEEESaISB_ENSt8__detail10_Select1stESt8equal_toIS5_ESt4hashIS5_ENSD_18_Mod_range_hashingENSD_20_Default_ranged_hashENSD_20_Prime_rehash_policyENSD_17_Hashtable_traitsILb1ELb0ELb1EEEE21_M_deallocate_bucketsEv
FNA:17,0,_ZNSt10_HashtableINSt7__cxx1112basic_stringIcSt11char_traitsIcESaIcEEESt4pairIKS5_bESaIS8_ENSt8__detail10_Select1stESt8equal_toIS5_ESt4hashIS5_ENSA_18_Mod_range_hashingENSA_20_Default_ranged_hashENSA_20_Prime_rehash_policyENSA_17_Hashtable_traitsILb1ELb0ELb1EEEE21_M_deallocate_bucketsEv
FNL:18,473,474
FNA:18,0,_ZNKSt10_HashtableINSt7__cxx1112basic_stringIcSt11char_traitsIcESaIcEEESt4pairIKS5_NS0_4listIS5_SaIS5_EEEESaISB_ENSt8__detail10_Select1stESt8equal_toIS5_ESt4hashIS5_ENSD_18_Mod_range_hashingENSD_20_Default_ranged_hashENSD_20_Prime_rehash_policyENSD_17_Hashtable_traitsILb1ELb0ELb1EEEE8_M_beginEv
FNA:18,0,_ZNKSt10_HashtableINSt7__cxx1112basic_stringIcSt11char_traitsIcESaIcEEESt4pairIKS5_bESaIS8_ENSt8__detail10_Select1stESt8equal_toIS5_ESt4hashIS5_ENSA_18_Mod_range_hashingENSA_20_Default_ranged_hashENSA_20_Prime_rehash_policyENSA_17_Hashtable_traitsILb1ELb0ELb1EEEE8_M_beginEv
FNL:19,539,539
FNA:19,0,_ZNSt10_HashtableINSt7__cxx1112basic_stringIcSt11char_traitsIcESaIcEEESt4pairIKS5_NS0_4listIS5_SaIS5_EEEESaISB_ENSt8__detail10_Select1stESt8equal_toIS5_ESt4hashIS5_ENSD_18_Mod_range_hashingENSD_20_Default_ranged_hashENSD_20_Prime_rehash_policyENSD_17_Hashtable_traitsILb1ELb0ELb1EEEEC1Ev
FNA:19,0,_ZNSt10_HashtableINSt7__cxx1112basic_stringIcSt11char_traitsIcESaIcEEESt4pairIKS5_bESaIS8_ENSt8__detail10_Select1stESt8equal_toIS5_ESt4hashIS5_ENSA_18_Mod_range_hashingENSA_20_Default_ranged_hashENSA_20_Prime_rehash_policyENSA_17_Hashtable_traitsILb1ELb0ELb1EEEEC1Ev
FNL:20,632,633
FNA:20,0,_ZNSt10_HashtableINSt7__cxx1112basic_stringIcSt11char_traitsIcESaIcEEESt4pairIKS5_NS0_4listIS5_SaIS5_EEEESaISB_ENSt8__detail10_Select1stESt8equal_toIS5_ESt4hashIS5_ENSD_18_Mod_range_hashingENSD_20_Default_ranged_hashENSD_20_Prime_rehash_policyENSD_17_Hashtable_traitsILb1ELb0ELb1EEEE5beginEv
FNA:20,0,_ZNSt10_HashtableINSt7__cxx1112basic_stringIcSt11char_traitsIcESaIcEEESt4pairIKS5_bESaIS8_ENSt8__detail10_Select1stESt8equal_toIS5_ESt4hashIS5_ENSA_18_Mod_range_hashingENSA_20_Default_ranged_hashENSA_20_Prime_rehash_policyENSA_17_Hashtable_traitsILb1ELb0ELb1EEEE5beginEv
FNL:21,640,641
FNA:21,0,_ZNSt10_HashtableINSt7__cxx1112basic_stringIcSt11char_traitsIcESaIcEEESt4pairIKS5_NS0_4listIS5_SaIS5_EEEESaISB_ENSt8__detail10_Select1stESt8equal_toIS5_ESt4hashIS5_ENSD_18_Mod_range_hashingENSD_20_Default_ranged_hashENSD_20_Prime_rehash_policyENSD_17_Hashtable_traitsILb1ELb0ELb1EEEE3endEv
FNA:21,0,_ZNSt10_HashtableINSt7__cxx1112basic_stringIcSt11char_traitsIcESaIcEEESt4pairIKS5_bESaIS8_ENSt8__detail10_Select1stESt8equal_toIS5_ESt4hashIS5_ENSA_18_Mod_range_hashingENSA_20_Default_ranged_hashENSA_20_Prime_rehash_policyENSA_17_Hashtable_traitsILb1ELb0ELb1EEEE3endEv
FNL:22,656,657
FNA:22,0,_ZNKSt10_HashtableINSt7__cxx1112basic_stringIcSt11char_traitsIcESaIcEEESt4pairIKS5_NS0_4listIS5_SaIS5_EEEESaISB_ENSt8__detail10_Select1stESt8equal_toIS5_ESt4hashIS5_ENSD_18_Mod_range_hashingENSD_20_Default_ranged_hashENSD_20_Prime_rehash_policyENSD_17_Hashtable_traitsILb1ELb0ELb1EEEE4sizeEv
FNA:22,0,_ZNKSt10_HashtableINSt7__cxx1112basic_stringIcSt11char_traitsIcESaIcEEESt4pairIKS5_bESaIS8_ENSt8__detail10_Select1stESt8equal_toIS5_ESt4hashIS5_ENSA_18_Mod_range_hashingENSA_20_Default_ranged_hashENSA_20_Prime_rehash_policyENSA_17_Hashtable_traitsILb1ELb0ELb1EEEE4sizeEv
FNL:23,799,800
FNA:23,0,_ZNKSt10_HashtableINSt7__cxx1112basic_stringIcSt11char_traitsIcESaIcEEESt4pairIKS5_NS0_4listIS5_SaIS5_EEEESaISB_ENSt8__detail10_Select1stESt8equal_toIS5_ESt4hashIS5_ENSD_18_Mod_range_hashingENSD_20_Default_ranged_hashENSD_20_Prime_rehash_policyENSD_17_Hashtable_traitsILb1ELb0ELb1EEEE15_M_bucket_indexERKNSD_16_Hash_node_valueISB_Lb1EEE
FNA:23,0,_ZNKSt10_HashtableINSt7__cxx1112basic_stringIcSt11char_traitsIcESaIcEEESt4pairIKS5_bESaIS8_ENSt8__detail10_Select1stESt8equal_toIS5_ESt4hashIS5_ENSA_18_Mod_range_hashingENSA_20_Default_ranged_hashENSA_20_Prime_rehash_policyENSA_17_Hashtable_traitsILb1ELb0ELb1EEEE15_M_bucket_indexERKNSA_16_Hash_node_valueIS8_Lb1EEE
FNL:24,803,804
FNA:24,0,_ZNKSt10_HashtableINSt7__cxx1112basic_stringIcSt11char_traitsIcESaIcEEESt4pairIKS5_NS0_4listIS5_SaIS5_EEEESaISB_ENSt8__detail10_Select1stESt8equal_toIS5_ESt4hashIS5_ENSD_18_Mod_range_hashingENSD_20_Default_ranged_hashENSD_20_Prime_rehash_policyENSD_17_Hashtable_traitsILb1ELb0ELb1EEEE15_M_bucket_indexEm
FNA:24,0,_ZNKSt10_HashtableINSt7__cxx1112basic_stringIcSt11char_traitsIcESaIcEEESt4pairIKS5_bESaIS8_ENSt8__detail10_Select1stESt8equal_toIS5_ESt4hashIS5_ENSA_18_Mod_range_hashingENSA_20_Default_ranged_hashENSA_20_Prime_rehash_policyENSA_17_Hashtable_traitsILb1ELb0ELb1EEEE15_M_bucket_indexEm
FNL:25,819,826
FNA:25,0,_ZNKSt10_HashtableINSt7__cxx1112basic_stringIcSt11char_traitsIcESaIcEEESt4pairIKS5_NS0_4listIS5_SaIS5_EEEESaISB_ENSt8__detail10_Select1stESt8equal_toIS5_ESt4hashIS5_ENSD_18_Mod_range_hashingENSD_20_Default_ranged_hashENSD_20_Prime_rehash_policyENSD_17_Hashtable_traitsILb1ELb0ELb1EEEE12_M_find_nodeEmRS7_m
FNA:25,0,_ZNKSt10_HashtableINSt7__cxx1112basic_stringIcSt11char_traitsIcESaIcEEESt4pairIKS5_bESaIS8_ENSt8__detail10_Select1stESt8equal_toIS5_ESt4hashIS5_ENSA_18_Mod_range_hashingENSA_20_Default_ranged_hashENSA_20_Prime_rehash_policyENSA_17_Hashtable_traitsILb1ELb0ELb1EEEE12_M_find_nodeEmRS7_m
FNL:26,841,865
FNA:26,0,_ZNSt10_HashtableINSt7__cxx1112basic_stringIcSt11char_traitsIcESaIcEEESt4pairIKS5_NS0_4listIS5_SaIS5_EEEESaISB_ENSt8__detail10_Select1stESt8equal_toIS5_ESt4hashIS5_ENSD_18_Mod_range_hashingENSD_20_Default_ranged_hashENSD_20_Prime_rehash_policyENSD_17_Hashtable_traitsILb1ELb0ELb1EEEE22_M_insert_bucket_beginEmPNSD_10_Hash_nodeISB_Lb1EEE
FNA:26,0,_ZNSt10_HashtableINSt7__cxx1112basic_stringIcSt11char_traitsIcESaIcEEESt4pairIKS5_bESaIS8_ENSt8__detail10_Select1stESt8equal_toIS5_ESt4hashIS5_ENSA_18_Mod_range_hashingENSA_20_Default_ranged_hashENSA_20_Prime_rehash_policyENSA_17_Hashtable_traitsILb1ELb0ELb1EEEE22_M_insert_bucket_beginEmPNSA_10_Hash_nodeIS8_Lb1EEE
FNF:27
FNH:0
DA:310,0
DA:311,0
DA:312,0
DA:313,0
DA:316,0
DA:329,0
DA:330,0
DA:407,0
DA:409,0
DA:410,0
DA:411,0
DA:414,0
DA:416,0
DA:417,0
DA:418,0
DA:421,0
DA:422,0
DA:429,0
DA:432,0
DA:439,0
DA:441,0
DA:443,0
DA:444,0
DA:447,0
DA:451,0
DA:453,0
DA:454,0
DA:456,0
DA:460,0
DA:461,0
DA:473,0
DA:474,0
DA:539,0
DA:632,0
DA:633,0
DA:640,0
DA:641,0
DA:656,0
DA:657,0
DA:799,0
DA:800,0
DA:803,0
DA:804,0
DA:819,0
DA:822,0
DA:823,0
DA:824,0
DA:825,0
DA:841,0
DA:843,0
DA:847,0
DA:848,0
DA:855,0
DA:856,0
DA:858,0
DA:861,0
DA:863,0
DA:865,0
DA:1415,0
DA:1419,0
DA:1420,0
DA:1421,0
DA:1425,0
DA:1426,0
DA:1430,0
DA:1432,0
DA:1433,0
DA:1434,0
DA:1437,0
DA:1438,0
DA:1440,0
DA:1441,0
DA:1442,0
DA:1443,0
DA:1444,0
DA:1445,0
DA:1446,0
DA:1449,0
DA:1451,0
DA:1452,0
DA:1453,0
DA:1454,0
DA:1532,0
DA:1539,0
DA:1541,0
DA:1542,0
DA:1543,0
DA:1544,0
DA:1546,0
DA:1547,0
DA:1548,0
DA:1654,0
DA:1667,0
DA:1668,0
DA:1669,0
DA:1723,0
DA:1728,0
DA:1730,0
DA:1731,0
DA:1732,0
DA:1733,0
DA:1736,0
DA:1737,0
DA:1738,0
DA:2061,0
DA:2067,0
DA:2068,0
DA:2069,0
DA:2071,0
DA:2072,0
DA:2074,0
DA:2075,0
DA:2077,0
DA:2078,0
DA:2079,0
DA:2082,0
DA:2224,0
DA:2230,0
DA:2232,0
DA:2235,0
DA:2237,0
DA:2238,0
DA:2241,0
DA:2242,0
DA:2245,0
DA:2246,0
DA:2247,0
DA:2248,0
DA:2580,0
DA:2584,0
DA:2585,0
DA:2586,0
DA:2587,0
DA:2588,0
DA:2589,0
DA:2619,0
DA:2623,0
DA:2624,0
DA:2625,0
DA:2626,0
DA:2627,0
DA:2629,0
DA:2631,0
DA:2632,0
DA:2634,0
DA:2635,0
DA:2636,0
DA:2637,0
DA:2638,0
DA:2639,0
DA:2643,0
DA:2644,0
DA:2647,0
DA:2650,0
DA:2651,0
DA:2652,0
DA:2653,0
LF:157
LH:0
end_of_record
TN:
SF:/opt/local/include/gcc14/c++/bits/hashtable_policy.h
FNL:0,112,113
FNA:0,0,_ZNKSt8__detail10_Select1stclIRKSt4pairIKNSt7__cxx1112basic_stringIcSt11char_traitsIcESaIcEEENS3_4listIS8_SaIS8_EEEEEEONS0_10__1st_typeIT_E4typeEOSH_
FNA:0,0,_ZNKSt8__detail10_Select1stclIRKSt4pairIKNSt7__cxx1112basic_stringIcSt11char_traitsIcESaIcEEEbEEEONS0_10__1st_typeIT_E4typeEOSE_
FNL:1,1243,1243
FNA:1,0,_ZNSt8__detail21_Hashtable_ebo_helperILi0ESaINS_10_Hash_nodeISt4pairIKNSt7__cxx1112basic_stringIcSt11char_traitsIcESaIcEEENS3_4listIS8_SaIS8_EEEELb1EEEELb1EEC2Ev
FNA:1,0,_ZNSt8__detail21_Hashtable_ebo_helperILi0ESaINS_10_Hash_nodeISt4pairIKNSt7__cxx1112basic_stringIcSt11char_traitsIcESaIcEEEbELb1EEEELb1EEC2Ev
FNA:1,10,_ZNSt8__detail21_Hashtable_ebo_helperILi0ESt8equal_toINSt7__cxx1112basic_stringIcSt11char_traitsIcESaIcEEEELb1EEC2Ev
FNA:1,5,_ZNSt8__detail21_Hashtable_ebo_helperILi1ESt4hashINSt7__cxx1112basic_stringIcSt11char_traitsIcESaIcEEEELb1EEC2Ev
FNL:2,1246,1248
FNA:2,0,_ZNSt8__detail21_Hashtable_ebo_helperILi0ESaINS_10_Hash_nodeISt4pairIKNSt7__cxx1112basic_stringIcSt11char_traitsIcESaIcEEENS3_4listIS8_SaIS8_EEEELb1EEEELb1EEC2ISF_EEOT_
FNL:3,1250,1250
FNA:3,0,_ZNKSt8__detail21_Hashtable_ebo_helperILi0ESaINS_10_Hash_nodeISt4pairIKNSt7__cxx1112basic_stringIcSt11char_traitsIcESaIcEEENS3_4listIS8_SaIS8_EEEELb1EEEELb1EE7_M_cgetEv
FNA:3,0,_ZNKSt8__detail21_Hashtable_ebo_helperILi0ESt8equal_toINSt7__cxx1112basic_stringIcSt11char_traitsIcESaIcEEEELb1EE7_M_cgetEv
FNA:3,0,_ZNKSt8__detail21_Hashtable_ebo_helperILi1ESt4hashINSt7__cxx1112basic_stringIcSt11char_traitsIcESaIcEEEELb1EE7_M_cgetEv
FNL:4,1251,1251
FNA:4,0,_ZNSt8__detail21_Hashtable_ebo_helperILi0ESaINS_10_Hash_nodeISt4pairIKNSt7__cxx1112basic_stringIcSt11char_traitsIcESaIcEEENS3_4listIS8_SaIS8_EEEELb1EEEELb1EE6_M_getEv
FNA:4,0,_ZNSt8__detail21_Hashtable_ebo_helperILi0ESaINS_10_Hash_nodeISt4pairIKNSt7__cxx1112basic_stringIcSt11char_traitsIcESaIcEEEbELb1EEEELb1EE6_M_getEv
FNL:5,1326,1326
FNA:5,0,_ZNSt8__detail15_Hash_code_baseINSt7__cxx1112basic_stringIcSt11char_traitsIcESaIcEEESt4pairIKS6_NS1_4listIS6_SaIS6_EEEENS_10_Select1stESt4hashIS6_ENS_18_Mod_range_hashingENS_20_Default_ranged_hashELb1EEC2Ev
FNA:5,0,_ZNSt8__detail15_Hash_code_baseINSt7__cxx1112basic_stringIcSt11char_traitsIcESaIcEEESt4pairIKS6_bENS_10_Select1stESt4hashIS6_ENS_18_Mod_range_hashingENS_20_Default_ranged_hashELb1EEC2Ev
FNL:6,1331,1336
FNA:6,0,_ZNKSt8__detail15_Hash_code_baseINSt7__cxx1112basic_stringIcSt11char_traitsIcESaIcEEESt4pairIKS6_NS1_4listIS6_SaIS6_EEEENS_10_Select1stESt4hashIS6_ENS_18_Mod_range_hashingENS_20_Default_ranged_hashELb1EE12_M_hash_codeERS8_
FNA:6,0,_ZNKSt8__detail15_Hash_code_baseINSt7__cxx1112basic_stringIcSt11char_traitsIcESaIcEEESt4pairIKS6_bENS_10_Select1stESt4hashIS6_ENS_18_Mod_range_hashingENS_20_Default_ranged_hashELb1EE12_M_hash_codeERS8_
FNL:7,1356,1357
FNA:7,0,_ZNKSt8__detail15_Hash_code_baseINSt7__cxx1112basic_stringIcSt11char_traitsIcESaIcEEESt4pairIKS6_NS1_4listIS6_SaIS6_EEEENS_10_Select1stESt4hashIS6_ENS_18_Mod_range_hashingENS_20_Default_ranged_hashELb1EE15_M_bucket_indexEmm
FNA:7,0,_ZNKSt8__detail15_Hash_code_baseINSt7__cxx1112basic_stringIcSt11char_traitsIcESaIcEEESt4pairIKS6_bENS_10_Select1stESt4hashIS6_ENS_18_Mod_range_hashingENS_20_Default_ranged_hashELb1EE15_M_bucket_indexEmm
FNL:8,1371,1375
FNA:8,0,_ZNKSt8__detail15_Hash_code_baseINSt7__cxx1112basic_stringIcSt11char_traitsIcESaIcEEESt4pairIKS6_NS1_4listIS6_SaIS6_EEEENS_10_Select1stESt4hashIS6_ENS_18_Mod_range_hashingENS_20_Default_ranged_hashELb1EE15_M_bucket_indexERKNS_16_Hash_node_valueISC_Lb1EEEm
FNA:8,0,_ZNKSt8__detail15_Hash_code_baseINSt7__cxx1112basic_stringIcSt11char_traitsIcESaIcEEESt4pairIKS6_bENS_10_Select1stESt4hashIS6_ENS_18_Mod_range_hashingENS_20_Default_ranged_hashELb1EE15_M_bucket_indexERKNS_16_Hash_node_valueIS9_Lb1EEEm
FNL:9,1387,1388
FNA:9,0,_ZNKSt8__detail15_Hash_code_baseINSt7__cxx1112basic_stringIcSt11char_traitsIcESaIcEEESt4pairIKS6_NS1_4listIS6_SaIS6_EEEENS_10_Select1stESt4hashIS6_ENS_18_Mod_range_hashingENS_20_Default_ranged_hashELb1EE13_M_store_codeERNS_21_Hash_node_code_cacheILb1EEEm
FNA:9,0,_ZNKSt8__detail15_Hash_code_baseINSt7__cxx1112basic_stringIcSt11char_traitsIcESaIcEEESt4pairIKS6_bENS_10_Select1stESt4hashIS6_ENS_18_Mod_range_hashingENS_20_Default_ranged_hashELb1EE13_M_store_codeERNS_21_Hash_node_code_cacheILb1EEEm
FNL:10,1391,1393
FNA:10,0,_ZNKSt8__detail15_Hash_code_baseINSt7__cxx1112basic_stringIcSt11char_traitsIcESaIcEEESt4pairIKS6_NS1_4listIS6_SaIS6_EEEENS_10_Select1stESt4hashIS6_ENS_18_Mod_range_hashingENS_20_Default_ranged_hashELb1EE12_M_copy_codeERNS_21_Hash_node_code_cacheILb1EEERKSK_
FNL:11,1400,1400
FNA:11,0,_ZNKSt8__detail15_Hash_code_baseINSt7__cxx1112basic_stringIcSt11char_traitsIcESaIcEEESt4pairIKS6_NS1_4listIS6_SaIS6_EEEENS_10_Select1stESt4hashIS6_ENS_18_Mod_range_hashingENS_20_Default_ranged_hashELb1EE7_M_hashEv
FNA:11,0,_ZNKSt8__detail15_Hash_code_baseINSt7__cxx1112basic_stringIcSt11char_traitsIcESaIcEEESt4pairIKS6_bENS_10_Select1stESt4hashIS6_ENS_18_Mod_range_hashingENS_20_Default_ranged_hashELb1EE7_M_hashEv
FNL:12,1717,1718
FNA:12,0,_ZNSt8__detail15_Hashtable_baseINSt7__cxx1112basic_stringIcSt11char_traitsIcESaIcEEESt4pairIKS6_NS1_4listIS6_SaIS6_EEEENS_10_Select1stESt8equal_toIS6_ESt4hashIS6_ENS_18_Mod_range_hashingENS_20_Default_ranged_hashENS_17_Hashtable_traitsILb1ELb0ELb1EEEE9_S_equalsEmRKNS_21_Hash_node_code_cacheILb1EEE
FNA:12,0,_ZNSt8__detail15_Hashtable_baseINSt7__cxx1112basic_stringIcSt11char_traitsIcESaIcEEESt4pairIKS6_bENS_10_Select1stESt8equal_toIS6_ESt4hashIS6_ENS_18_Mod_range_hashingENS_20_Default_ranged_hashENS_17_Hashtable_traitsILb1ELb0ELb1EEEE9_S_equalsEmRKNS_21_Hash_node_code_cacheILb1EEE
FNL:13,1726,1726
FNA:13,0,_ZNSt8__detail15_Hashtable_baseINSt7__cxx1112basic_stringIcSt11char_traitsIcESaIcEEESt4pairIKS6_NS1_4listIS6_SaIS6_EEEENS_10_Select1stESt8equal_toIS6_ESt4hashIS6_ENS_18_Mod_range_hashingENS_20_Default_ranged_hashENS_17_Hashtable_traitsILb1ELb0ELb1EEEEC2Ev
FNA:13,0,_ZNSt8__detail15_Hashtable_baseINSt7__cxx1112basic_stringIcSt11char_traitsIcESaIcEEESt4pairIKS6_bENS_10_Select1stESt8equal_toIS6_ESt4hashIS6_ENS_18_Mod_range_hashingENS_20_Default_ranged_hashENS_17_Hashtable_traitsILb1ELb0ELb1EEEEC2Ev
FNL:14,1733,1741
FNA:14,0,_ZNKSt8__detail15_Hashtable_baseINSt7__cxx1112basic_stringIcSt11char_traitsIcESaIcEEESt4pairIKS6_NS1_4listIS6_SaIS6_EEEENS_10_Select1stESt8equal_toIS6_ESt4hashIS6_ENS_18_Mod_range_hashingENS_20_Default_ranged_hashENS_17_Hashtable_traitsILb1ELb0ELb1EEEE13_M_key_equalsERS8_RKNS_16_Hash_node_valueISC_Lb1EEE
FNA:14,0,_ZNKSt8__detail15_Hashtable_baseINSt7__cxx1112basic_stringIcSt11char_traitsIcESaIcEEESt4pairIKS6_bENS_10_Select1stESt8equal_toIS6_ESt4hashIS6_ENS_18_Mod_range_hashingENS_20_Default_ranged_hashENS_17_Hashtable_traitsILb1ELb0ELb1EEEE13_M_key_equalsERS8_RKNS_16_Hash_node_valueIS9_Lb1EEE
FNL:15,1757,1759
FNA:15,0,_ZNKSt8__detail15_Hashtable_baseINSt7__cxx1112basic_stringIcSt11char_traitsIcESaIcEEESt4pairIKS6_NS1_4listIS6_SaIS6_EEEENS_10_Select1stESt8equal_toIS6_ESt4hashIS6_ENS_18_Mod_range_hashingENS_20_Default_ranged_hashENS_17_Hashtable_traitsILb1ELb0ELb1EEEE9_M_equalsERS8_mRKNS_16_Hash_node_valueISC_Lb1EEE
FNA:15,0,_ZNKSt8__detail15_Hashtable_baseINSt7__cxx1112basic_stringIcSt11char_traitsIcESaIcEEESt4pairIKS6_bENS_10_Select1stESt8equal_toIS6_ESt4hashIS6_ENS_18_Mod_range_hashingENS_20_Default_ranged_hashENS_17_Hashtable_traitsILb1ELb0ELb1EEEE9_M_equalsERS8_mRKNS_16_Hash_node_valueIS9_Lb1EEE
FNL:16,1785,1785
FNA:16,0,_ZNKSt8__detail15_Hashtable_baseINSt7__cxx1112basic_stringIcSt11char_traitsIcESaIcEEESt4pairIKS6_NS1_4listIS6_SaIS6_EEEENS_10_Select1stESt8equal_toIS6_ESt4hashIS6_ENS_18_Mod_range_hashingENS_20_Default_ranged_hashENS_17_Hashtable_traitsILb1ELb0ELb1EEEE5_M_eqEv
FNA:16,0,_ZNKSt8__detail15_Hashtable_baseINSt7__cxx1112basic_stringIcSt11char_traitsIcESaIcEEESt4pairIKS6_bENS_10_Select1stESt8equal_toIS6_ESt4hashIS6_ENS_18_Mod_range_hashingENS_20_Default_ranged_hashENS_17_Hashtable_traitsILb1ELb0ELb1EEEE5_M_eqEv
FNL:17,1968,1968
FNA:17,0,_ZNSt8__detail16_Hashtable_allocISaINS_10_Hash_nodeISt4pairIKNSt7__cxx1112basic_stringIcSt11char_traitsIcESaIcEEENS3_4listIS8_SaIS8_EEEELb1EEEEEC2Ev
FNA:17,0,_ZNSt8__detail16_Hashtable_allocISaINS_10_Hash_nodeISt4pairIKNSt7__cxx1112basic_stringIcSt11char_traitsIcESaIcEEEbELb1EEEEEC2Ev
FNL:18,1973,1975
FNA:18,0,_ZNSt8__detail16_Hashtable_allocISaINS_10_Hash_nodeISt4pairIKNSt7__cxx1112basic_stringIcSt11char_traitsIcESaIcEEENS3_4listIS8_SaIS8_EEEELb1EEEEEC2ISF_EEOT_
FNL:19,1978,1979
FNA:19,0,_ZNSt8__detail16_Hashtable_allocISaINS_10_Hash_nodeISt4pairIKNSt7__cxx1112basic_stringIcSt11char_traitsIcESaIcEEENS3_4listIS8_SaIS8_EEEELb1EEEEE17_M_node_allocatorEv
FNA:19,0,_ZNSt8__detail16_Hashtable_allocISaINS_10_Hash_nodeISt4pairIKNSt7__cxx1112basic_stringIcSt11char_traitsIcESaIcEEEbELb1EEEEE17_M_node_allocatorEv
FNL:20,1982,1983
FNA:20,0,_ZNKSt8__detail16_Hashtable_allocISaINS_10_Hash_nodeISt4pairIKNSt7__cxx1112basic_stringIcSt11char_traitsIcESaIcEEENS3_4listIS8_SaIS8_EEEELb1EEEEE17_M_node_allocatorEv
FNL:21,2015,2034
FNA:21,0,_ZNSt8__detail16_Hashtable_allocISaINS_10_Hash_nodeISt4pairIKNSt7__cxx1112basic_stringIcSt11char_traitsIcESaIcEEENS3_4listIS8_SaIS8_EEEELb1EEEEE16_M_allocate_nodeIJRKSD_EEEPSE_DpOT_
FNA:21,0,_ZNSt8__detail16_Hashtable_allocISaINS_10_Hash_nodeISt4pairIKNSt7__cxx1112basic_stringIcSt11char_traitsIcESaIcEEENS3_4listIS8_SaIS8_EEEELb1EEEEE16_M_allocate_nodeIJRKSt21piecewise_construct_tSt5tupleIJRS9_EESL_IJEEEEEPSE_DpOT_
FNA:21,0,_ZNSt8__detail16_Hashtable_allocISaINS_10_Hash_nodeISt4pairIKNSt7__cxx1112basic_stringIcSt11char_traitsIcESaIcEEEbELb1EEEEE16_M_allocate_nodeIJRKSt21piecewise_construct_tSt5tupleIJRS9_EESI_IJEEEEEPSB_DpOT_
FNL:22,2038,2042
FNA:22,0,_ZNSt8__detail16_Hashtable_allocISaINS_10_Hash_nodeISt4pairIKNSt7__cxx1112basic_stringIcSt11char_traitsIcESaIcEEENS3_4listIS8_SaIS8_EEEELb1EEEEE18_M_deallocate_nodeEPSE_
FNA:22,0,_ZNSt8__detail16_Hashtable_allocISaINS_10_Hash_nodeISt4pairIKNSt7__cxx1112basic_stringIcSt11char_traitsIcESaIcEEEbELb1EEEEE18_M_deallocate_nodeEPSB_
FNL:23,2046,2052
FNA:23,0,_ZNSt8__detail16_Hashtable_allocISaINS_10_Hash_nodeISt4pairIKNSt7__cxx1112basic_stringIcSt11char_traitsIcESaIcEEENS3_4listIS8_SaIS8_EEEELb1EEEEE22_M_deallocate_node_ptrEPSE_
FNA:23,0,_ZNSt8__detail16_Hashtable_allocISaINS_10_Hash_nodeISt4pairIKNSt7__cxx1112basic_stringIcSt11char_traitsIcESaIcEEEbELb1EEEEE22_M_deallocate_node_ptrEPSB_
FNL:24,2056,2064
FNA:24,0,_ZNSt8__detail16_Hashtable_allocISaINS_10_Hash_nodeISt4pairIKNSt7__cxx1112basic_stringIcSt11char_traitsIcESaIcEEENS3_4listIS8_SaIS8_EEEELb1EEEEE19_M_deallocate_nodesEPSE_
FNA:24,0,_ZNSt8__detail16_Hashtable_allocISaINS_10_Hash_nodeISt4pairIKNSt7__cxx1112basic_stringIcSt11char_traitsIcESaIcEEEbELb1EEEEE19_M_deallocate_nodesEPSB_
FNL:25,2068,2077
FNA:25,0,_ZNSt8__detail16_Hashtable_allocISaINS_10_Hash_nodeISt4pairIKNSt7__cxx1112basic_stringIcSt11char_traitsIcESaIcEEENS3_4listIS8_SaIS8_EEEELb1EEEEE19_M_allocate_bucketsEm
FNA:25,0,_ZNSt8__detail16_Hashtable_allocISaINS_10_Hash_nodeISt4pairIKNSt7__cxx1112basic_stringIcSt11char_traitsIcESaIcEEEbELb1EEEEE19_M_allocate_bucketsEm
FNL:26,2081,2089
FNA:26,0,_ZNSt8__detail16_Hashtable_allocISaINS_10_Hash_nodeISt4pairIKNSt7__cxx1112basic_stringIcSt11char_traitsIcESaIcEEENS3_4listIS8_SaIS8_EEEELb1EEEEE21_M_deallocate_bucketsEPPNS_15_Hash_node_baseEm
FNA:26,0,_ZNSt8__detail16_Hashtable_allocISaINS_10_Hash_nodeISt4pairIKNSt7__cxx1112basic_stringIcSt11char_traitsIcESaIcEEEbELb1EEEEE21_M_deallocate_bucketsEPPNS_15_Hash_node_baseEm
FNL:27,248,249
FNA:27,0,_ZNSt8__detail10_AllocNodeISaINS_10_Hash_nodeISt4pairIKNSt7__cxx1112basic_stringIcSt11char_traitsIcESaIcEEENS3_4listIS8_SaIS8_EEEELb1EEEEEC1ERNS_16_Hashtable_allocISF_EE
FNL:28,253,254
FNA:28,0,_ZNKSt8__detail10_AllocNodeISaINS_10_Hash_nodeISt4pairIKNSt7__cxx1112basic_stringIcSt11char_traitsIcESaIcEEENS3_4listIS8_SaIS8_EEEELb1EEEEEclIJRKSD_EEEPSE_DpOT_
FNL:29,303,304
FNA:29,10,_ZNSt8__detail22_Hashtable_hash_traitsISt4hashINSt7__cxx1112basic_stringIcSt11char_traitsIcESaIcEEEEE22__small_size_thresholdEv
FNL:30,319,319
FNA:30,10,_ZNSt8__detail15_Hash_node_baseC1Ev
FNA:30,0,_ZNSt8__detail15_Hash_node_baseC2Ev
FNL:31,386,387
FNA:31,0,_ZNKSt8__detail10_Hash_nodeISt4pairIKNSt7__cxx1112basic_stringIcSt11char_traitsIcESaIcEEENS2_4listIS7_SaIS7_EEEELb1EE7_M_nextEv
FNA:31,0,_ZNKSt8__detail10_Hash_nodeISt4pairIKNSt7__cxx1112basic_stringIcSt11char_traitsIcESaIcEEEbELb1EE7_M_nextEv
FNL:32,399,400
FNA:32,0,_ZNSt8__detail19_Node_iterator_baseISt4pairIKNSt7__cxx1112basic_stringIcSt11char_traitsIcESaIcEEENS2_4listIS7_SaIS7_EEEELb1EEC2EPNS_10_Hash_nodeISC_Lb1EEE
FNA:32,0,_ZNSt8__detail19_Node_iterator_baseISt4pairIKNSt7__cxx1112basic_stringIcSt11char_traitsIcESaIcEEEbELb1EEC2EPNS_10_Hash_nodeIS9_Lb1EEE
FNL:33,403,404
FNA:33,0,_ZNSt8__detail19_Node_iterator_baseISt4pairIKNSt7__cxx1112basic_stringIcSt11char_traitsIcESaIcEEENS2_4listIS7_SaIS7_EEEELb1EE7_M_incrEv
FNA:33,0,_ZNSt8__detail19_Node_iterator_baseISt4pairIKNSt7__cxx1112basic_stringIcSt11char_traitsIcESaIcEEEbELb1EE7_M_incrEv
FNL:34,407,409
FNA:34,0,_ZNSt8__detaileqERKNS_19_Node_iterator_baseISt4pairIKNSt7__cxx1112basic_stringIcSt11char_traitsIcESaIcEEENS2_4listIS7_SaIS7_EEEELb1EEESF_
FNL:35,413,415
FNA:35,0,_ZNSt8__detailneERKNS_19_Node_iterator_baseISt4pairIKNSt7__cxx1112basic_stringIcSt11char_traitsIcESaIcEEENS2_4listIS7_SaIS7_EEEELb1EEESF_
FNA:35,0,_ZNSt8__detailneERKNS_19_Node_iterator_baseISt4pairIKNSt7__cxx1112basic_stringIcSt11char_traitsIcESaIcEEEbELb1EEESC_
FNL:36,442,443
FNA:36,0,_ZNSt8__detail14_Node_iteratorISt4pairIKNSt7__cxx1112basic_stringIcSt11char_traitsIcESaIcEEENS2_4listIS7_SaIS7_EEEELb0ELb1EEC1EPNS_10_Hash_nodeISC_Lb1EEE
FNA:36,0,_ZNSt8__detail14_Node_iteratorISt4pairIKNSt7__cxx1112basic_stringIcSt11char_traitsIcESaIcEEEbELb0ELb1EEC1EPNS_10_Hash_nodeIS9_Lb1EEE
FNL:37,446,447
FNA:37,0,_ZNKSt8__detail14_Node_iteratorISt4pairIKNSt7__cxx1112basic_stringIcSt11char_traitsIcESaIcEEENS2_4listIS7_SaIS7_EEEELb0ELb1EEdeEv
FNA:37,0,_ZNKSt8__detail14_Node_iteratorISt4pairIKNSt7__cxx1112basic_stringIcSt11char_traitsIcESaIcEEEbELb0ELb1EEdeEv
FNL:38,450,451
FNA:38,0,_ZNKSt8__detail14_Node_iteratorISt4pairIKNSt7__cxx1112basic_stringIcSt11char_traitsIcESaIcEEENS2_4listIS7_SaIS7_EEEELb0ELb1EEptEv
FNA:38,0,_ZNKSt8__detail14_Node_iteratorISt4pairIKNSt7__cxx1112basic_stringIcSt11char_traitsIcESaIcEEEbELb0ELb1EEptEv
FNL:39,454,458
FNA:39,0,_ZNSt8__detail14_Node_iteratorISt4pairIKNSt7__cxx1112basic_stringIcSt11char_traitsIcESaIcEEENS2_4listIS7_SaIS7_EEEELb0ELb1EEppEv
FNA:39,0,_ZNSt8__detail14_Node_iteratorISt4pairIKNSt7__cxx1112basic_stringIcSt11char_traitsIcESaIcEEEbELb0ELb1EEppEv
FNL:40,532,534
FNA:40,0,_ZNKSt8__detail18_Mod_range_hashingclEmm
FNL:41,550,551
FNA:41,10,_ZNSt8__detail20_Prime_rehash_policyC1Ef
FNL:42,577,578
FNA:42,0,_ZNKSt8__detail20_Prime_rehash_policy8_M_stateEv
FNL:43,585,586
FNA:43,0,_ZNSt8__detail20_Prime_rehash_policy8_M_resetEm
FNL:44,730,733
FNA:44,0,_ZNSt8__detail17_RehashStateGuardINS_20_Prime_rehash_policyEEC1ERS1_
FNL:45,736,740
FNA:45,0,_ZNSt8__detail17_RehashStateGuardINS_20_Prime_rehash_policyEED1Ev
FNL:46,832,853
FNA:46,0,_ZNSt8__detail9_Map_baseINSt7__cxx1112basic_stringIcSt11char_traitsIcESaIcEEESt4pairIKS6_NS1_4listIS6_SaIS6_EEEESaISC_ENS_10_Select1stESt8equal_toIS6_ESt4hashIS6_ENS_18_Mod_range_hashingENS_20_Default_ranged_hashENS_20_Prime_rehash_policyENS_17_Hashtable_traitsILb1ELb0ELb1EEELb1EEixERS8_
FNA:46,0,_ZNSt8__detail9_Map_baseINSt7__cxx1112basic_stringIcSt11char_traitsIcESaIcEEESt4pairIKS6_bESaIS9_ENS_10_Select1stESt8equal_toIS6_ESt4hashIS6_ENS_18_Mod_range_hashingENS_20_Default_ranged_hashENS_20_Prime_rehash_policyENS_17_Hashtable_traitsILb1ELb0ELb1EEELb1EEixERS8_
FNF:47
FNH:4
DA:112,0
DA:113,0
DA:248,0
DA:249,0
DA:253,0
DA:254,0
DA:303,10
DA:304,10
DA:319,10
DA:339,0
DA:344,0
DA:349,0
DA:354,0
DA:386,0
DA:387,0
DA:399,0
DA:400,0
DA:403,0
DA:404,0
DA:407,0
DA:409,0
DA:413,0
DA:415,0
DA:442,0
DA:443,0
DA:446,0
DA:447,0
DA:450,0
DA:451,0
DA:454,0
DA:456,0
DA:457,0
DA:532,0
DA:534,0
DA:550,10
DA:551,10
DA:577,0
DA:578,0
DA:585,0
DA:586,0
DA:730,0
DA:731,0
DA:732,0
DA:733,0
DA:736,0
DA:738,0
DA:739,0
DA:740,0
DA:832,0
DA:837,0
DA:838,0
DA:839,0
DA:840,0
DA:841,0
DA:843,0
DA:846,0
DA:847,0
DA:850,0
DA:851,0
DA:852,0
DA:853,0
DA:1243,15
DA:1246,0
DA:1247,0
DA:1248,0
DA:1250,0
DA:1251,0
DA:1326,0
DA:1331,0
DA:1335,0
DA:1356,0
DA:1357,0
DA:1371,0
DA:1375,0
DA:1387,0
DA:1388,0
DA:1391,0
DA:1393,0
DA:1400,0
DA:1717,0
DA:1718,0
DA:1726,0
DA:1733,0
DA:1740,0
DA:1757,0
DA:1759,0
DA:1785,0
DA:1968,0
DA:1973,0
DA:1974,0
DA:1975,0
DA:1978,0
DA:1979,0
DA:1982,0
DA:1983,0
DA:2015,0
DA:2018,0
DA:2019,0
DA:2020,0
DA:2023,0
DA:2024,0
DA:2026,0
DA:2028,0
DA:2030,0
DA:2032,0
DA:2038,0
DA:2040,0
DA:2041,0
DA:2042,0
DA:2046,0
DA:2049,0
DA:2050,0
DA:2051,0
DA:2052,0
DA:2056,0
DA:2058,0
DA:2060,0
DA:2061,0
DA:2062,0
DA:2064,0
DA:2068,0
DA:2071,0
DA:2073,0
DA:2074,0
DA:2075,0
DA:2076,0
DA:2081,0
DA:2086,0
DA:2087,0
DA:2089,0
LF:130
LH:6
end_of_record
TN:
SF:/opt/local/include/gcc14/c++/bits/invoke.h
FNL:0,104,117
FNA:0,0,_ZSt10__invoke_rIbRNSt8__detail11_AnyMatcherINSt7__cxx1112regex_traitsIcEELb0ELb0ELb0EEEJcEENSt9enable_ifIX16is_invocable_r_vIT_T0_JDpT1_EEES8_E4typeEOS9_DpOSA_
FNA:0,0,_ZSt10__invoke_rIbRNSt8__detail11_AnyMatcherINSt7__cxx1112regex_traitsIcEELb0ELb0ELb1EEEJcEENSt9enable_ifIX16is_invocable_r_vIT_T0_JDpT1_EEES8_E4typeEOS9_DpOSA_
FNA:0,0,_ZSt10__invoke_rIbRNSt8__detail11_AnyMatcherINSt7__cxx1112regex_traitsIcEELb0ELb1ELb0EEEJcEENSt9enable_ifIX16is_invocable_r_vIT_T0_JDpT1_EEES8_E4typeEOS9_DpOSA_
FNA:0,0,_ZSt10__invoke_rIbRNSt8__detail11_AnyMatcherINSt7__cxx1112regex_traitsIcEELb0ELb1ELb1EEEJcEENSt9enable_ifIX16is_invocable_r_vIT_T0_JDpT1_EEES8_E4typeEOS9_DpOSA_
FNA:0,0,_ZSt10__invoke_rIbRNSt8__detail11_AnyMatcherINSt7__cxx1112regex_traitsIcEELb1ELb0ELb0EEEJcEENSt9enable_ifIX16is_invocable_r_vIT_T0_JDpT1_EEES8_E4typeEOS9_DpOSA_
FNA:0,0,_ZSt10__invoke_rIbRNSt8__detail11_AnyMatcherINSt7__cxx1112regex_traitsIcEELb1ELb0ELb1EEEJcEENSt9enable_ifIX16is_invocable_r_vIT_T0_JDpT1_EEES8_E4typeEOS9_DpOSA_
FNA:0,0,_ZSt10__invoke_rIbRNSt8__detail11_AnyMatcherINSt7__cxx1112regex_traitsIcEELb1ELb1ELb0EEEJcEENSt9enable_ifIX16is_invocable_r_vIT_T0_JDpT1_EEES8_E4typeEOS9_DpOSA_
FNA:0,0,_ZSt10__invoke_rIbRNSt8__detail11_AnyMatcherINSt7__cxx1112regex_traitsIcEELb1ELb1ELb1EEEJcEENSt9enable_ifIX16is_invocable_r_vIT_T0_JDpT1_EEES8_E4typeEOS9_DpOSA_
FNA:0,0,_ZSt10__invoke_rIbRNSt8__detail12_CharMatcherINSt7__cxx1112regex_traitsIcEELb0ELb0EEEJcEENSt9enable_ifIX16is_invocable_r_vIT_T0_JDpT1_EEES8_E4typeEOS9_DpOSA_
FNA:0,0,_ZSt10__invoke_rIbRNSt8__detail12_CharMatcherINSt7__cxx1112regex_traitsIcEELb0ELb1EEEJcEENSt9enable_ifIX16is_invocable_r_vIT_T0_JDpT1_EEES8_E4typeEOS9_DpOSA_
FNA:0,0,_ZSt10__invoke_rIbRNSt8__detail12_CharMatcherINSt7__cxx1112regex_traitsIcEELb1ELb0EEEJcEENSt9enable_ifIX16is_invocable_r_vIT_T0_JDpT1_EEES8_E4typeEOS9_DpOSA_
FNA:0,0,_ZSt10__invoke_rIbRNSt8__detail12_CharMatcherINSt7__cxx1112regex_traitsIcEELb1ELb1EEEJcEENSt9enable_ifIX16is_invocable_r_vIT_T0_JDpT1_EEES8_E4typeEOS9_DpOSA_
FNA:0,0,_ZSt10__invoke_rIbRNSt8__detail15_BracketMatcherINSt7__cxx1112regex_traitsIcEELb0ELb0EEEJcEENSt9enable_ifIX16is_invocable_r_vIT_T0_JDpT1_EEES8_E4typeEOS9_DpOSA_
FNA:0,0,_ZSt10__invoke_rIbRNSt8__detail15_BracketMatcherINSt7__cxx1112regex_traitsIcEELb0ELb1EEEJcEENSt9enable_ifIX16is_invocable_r_vIT_T0_JDpT1_EEES8_E4typeEOS9_DpOSA_
FNA:0,0,_ZSt10__invoke_rIbRNSt8__detail15_BracketMatcherINSt7__cxx1112regex_traitsIcEELb1ELb0EEEJcEENSt9enable_ifIX16is_invocable_r_vIT_T0_JDpT1_EEES8_E4typeEOS9_DpOSA_
FNA:0,0,_ZSt10__invoke_rIbRNSt8__detail15_BracketMatcherINSt7__cxx1112regex_traitsIcEELb1ELb1EEEJcEENSt9enable_ifIX16is_invocable_r_vIT_T0_JDpT1_EEES8_E4typeEOS9_DpOSA_
FNL:1,60,61
FNA:1,0,_ZSt13__invoke_implIbRNSt8__detail11_AnyMatcherINSt7__cxx1112regex_traitsIcEELb0ELb0ELb0EEEJcEET_St14__invoke_otherOT0_DpOT1_
FNA:1,0,_ZSt13__invoke_implIbRNSt8__detail11_AnyMatcherINSt7__cxx1112regex_traitsIcEELb0ELb0ELb1EEEJcEET_St14__invoke_otherOT0_DpOT1_
FNA:1,0,_ZSt13__invoke_implIbRNSt8__detail11_AnyMatcherINSt7__cxx1112regex_traitsIcEELb0ELb1ELb0EEEJcEET_St14__invoke_otherOT0_DpOT1_
FNA:1,0,_ZSt13__invoke_implIbRNSt8__detail11_AnyMatcherINSt7__cxx1112regex_traitsIcEELb0ELb1ELb1EEEJcEET_St14__invoke_otherOT0_DpOT1_
FNA:1,0,_ZSt13__invoke_implIbRNSt8__detail11_AnyMatcherINSt7__cxx1112regex_traitsIcEELb1ELb0ELb0EEEJcEET_St14__invoke_otherOT0_DpOT1_
FNA:1,0,_ZSt13__invoke_implIbRNSt8__detail11_AnyMatcherINSt7__cxx1112regex_traitsIcEELb1ELb0ELb1EEEJcEET_St14__invoke_otherOT0_DpOT1_
FNA:1,0,_ZSt13__invoke_implIbRNSt8__detail11_AnyMatcherINSt7__cxx1112regex_traitsIcEELb1ELb1ELb0EEEJcEET_St14__invoke_otherOT0_DpOT1_
FNA:1,0,_ZSt13__invoke_implIbRNSt8__detail11_AnyMatcherINSt7__cxx1112regex_traitsIcEELb1ELb1ELb1EEEJcEET_St14__invoke_otherOT0_DpOT1_
FNA:1,0,_ZSt13__invoke_implIbRNSt8__detail12_CharMatcherINSt7__cxx1112regex_traitsIcEELb0ELb0EEEJcEET_St14__invoke_otherOT0_DpOT1_
FNA:1,0,_ZSt13__invoke_implIbRNSt8__detail12_CharMatcherINSt7__cxx1112regex_traitsIcEELb0ELb1EEEJcEET_St14__invoke_otherOT0_DpOT1_
FNA:1,0,_ZSt13__invoke_implIbRNSt8__detail12_CharMatcherINSt7__cxx1112regex_traitsIcEELb1ELb0EEEJcEET_St14__invoke_otherOT0_DpOT1_
FNA:1,0,_ZSt13__invoke_implIbRNSt8__detail12_CharMatcherINSt7__cxx1112regex_traitsIcEELb1ELb1EEEJcEET_St14__invoke_otherOT0_DpOT1_
FNA:1,0,_ZSt13__invoke_implIbRNSt8__detail15_BracketMatcherINSt7__cxx1112regex_traitsIcEELb0ELb0EEEJcEET_St14__invoke_otherOT0_DpOT1_
FNA:1,0,_ZSt13__invoke_implIbRNSt8__detail15_BracketMatcherINSt7__cxx1112regex_traitsIcEELb0ELb1EEEJcEET_St14__invoke_otherOT0_DpOT1_
FNA:1,0,_ZSt13__invoke_implIbRNSt8__detail15_BracketMatcherINSt7__cxx1112regex_traitsIcEELb1ELb0EEEJcEET_St14__invoke_otherOT0_DpOT1_
FNA:1,0,_ZSt13__invoke_implIbRNSt8__detail15_BracketMatcherINSt7__cxx1112regex_traitsIcEELb1ELb1EEEJcEET_St14__invoke_otherOT0_DpOT1_
FNF:2
FNH:0
DA:60,0
DA:61,0
DA:104,0
DA:114,0
DA:116,0
LF:5
LH:0
end_of_record
TN:
SF:/opt/local/include/gcc14/c++/bits/ios_base.h
FNL:0,104,105
FNA:0,0,_ZStoRRSt13_Ios_FmtflagsS_
FNL:1,1087,1091
FNA:1,0,_ZSt3hexRSt8ios_base
FNL:2,109,110
FNA:2,0,_ZStaNRSt13_Ios_FmtflagsS_
FNL:3,1095,1099
FNA:3,0,_ZSt3octRSt8ios_base
FNL:4,726,732
FNA:4,0,_ZNSt8ios_base4setfESt13_Ios_FmtflagsS0_
FNL:5,84,85
FNA:5,0,_ZStanSt13_Ios_FmtflagsS_
FNL:6,872,877
FNA:6,0,_ZNSt8ios_base5iwordEi
FNL:7,89,90
FNA:7,0,_ZStorSt13_Ios_FmtflagsS_
FNL:8,99,100
FNA:8,0,_ZStcoSt13_Ios_Fmtflags
FNF:9
FNH:0
DA:84,0
DA:85,0
DA:89,0
DA:90,0
DA:99,0
DA:100,0
DA:104,0
DA:105,0
DA:109,0
DA:110,0
DA:726,0
DA:728,0
DA:729,0
DA:730,0
DA:731,0
DA:872,0
DA:874,0
DA:875,0
DA:876,0
DA:1087,0
DA:1089,0
DA:1090,0
DA:1095,0
DA:1097,0
DA:1098,0
LF:25
LH:0
end_of_record
TN:
SF:/opt/local/include/gcc14/c++/bits/list.tcc
FNL:0,133,145
FNA:0,0,_ZNSt7__cxx114listINS_12basic_stringIcSt11char_traitsIcESaIcEEESaIS5_EE6insertISt20_List_const_iteratorIS5_EvEESt14_List_iteratorIS5_ESA_T_SD_
FNL:1,150,160
FNA:1,0,_ZNSt7__cxx114listINS_12basic_stringIcSt11char_traitsIcESaIcEEESaIS5_EE5eraseESt20_List_const_iteratorIS5_E
FNL:2,267,289
FNA:2,0,_ZNSt7__cxx114listINS_12basic_stringIcSt11char_traitsIcESaIcEEESaIS5_EEaSERKS7_
FNL:3,308,321
FNA:3,0,_ZNSt7__cxx114listINS_12basic_stringIcSt11char_traitsIcESaIcEEESaIS5_EE18_M_assign_dispatchISt20_List_const_iteratorIS5_EEEvT_SB_St12__false_type
FNL:4,66,83
FNA:4,0,_ZNSt7__cxx1110_List_baseINS_12basic_stringIcSt11char_traitsIcESaIcEEESaIS5_EE8_M_clearEv
FNA:4,0,_ZNSt7__cxx1110_List_baseIcSaIcEE8_M_clearEv
FNF:5
FNH:0
DA:66,0
DA:70,0
DA:71,0
DA:73,0
DA:74,0
DA:75,0
DA:77,0
DA:81,0
DA:83,0
DA:133,0
DA:137,0
DA:138,0
DA:140,0
DA:141,0
DA:142,0
DA:144,0
DA:145,0
DA:150,0
DA:157,0
DA:158,0
DA:159,0
DA:267,0
DA:270,0
DA:273,0
DA:275,0
DA:276,0
DA:277,0
DA:278,0
DA:281,0
DA:286,0
DA:288,0
DA:308,0
DA:312,0
DA:313,0
DA:314,0
DA:315,0
DA:316,0
DA:317,0
DA:318,0
DA:320,0
DA:321,0
LF:41
LH:0
end_of_record
TN:
SF:/opt/local/include/gcc14/c++/bits/locale_classes.tcc
FNL:0,195,206
FNA:0,0,_ZSt9use_facetIKSt5ctypeIcEERKT_RKSt6locale
FNL:1,94,149
FNA:1,0,_ZSt15__try_use_facetIKSt5ctypeIcEEPKT_RKSt6locale
FNF:2
FNH:0
DA:94,0
DA:96,0
DA:97,0
DA:141,0
DA:142,0
DA:145,0
DA:195,0
DA:203,0
DA:204,0
DA:205,0
LF:10
LH:0
end_of_record
TN:
SF:/opt/local/include/gcc14/c++/bits/locale_facets.h
FNL:0,810,811
FNA:0,0,_ZNKSt5ctypeIcE7toupperEc
FNL:1,843,844
FNA:1,0,_ZNKSt5ctypeIcE7tolowerEc
FNL:2,860,861
FNA:2,0,_ZNKSt5ctypeIcE7tolowerEPcPKc
FNL:3,880,886
FNA:3,0,_ZNKSt5ctypeIcE5widenEc
FNL:4,939,947
FNA:4,0,_ZNKSt5ctypeIcE6narrowEcc
FNF:5
FNH:0
DA:810,0
DA:811,0
DA:843,0
DA:844,0
DA:860,0
DA:861,0
DA:880,0
DA:882,0
DA:883,0
DA:884,0
DA:885,0
DA:939,0
DA:941,0
DA:942,0
DA:943,0
DA:944,0
DA:945,0
DA:946,0
LF:18
LH:0
end_of_record
TN:
SF:/opt/local/include/gcc14/c++/bits/move.h
FNL:0,126,127
FNA:0,0,_ZSt4moveIRN9__gnu_cxx5__ops15_Iter_less_iterEEONSt16remove_referenceIT_E4typeEOS5_
FNA:0,0,_ZSt4moveIRNSt12_Vector_baseINSt7__cxx1112basic_stringIcSt11char_traitsIcESaIcEEESaIS6_EE12_Vector_implEEONSt16remove_referenceIT_E4typeEOSC_
FNA:0,0,_ZSt4moveIRNSt12_Vector_baseINSt7__cxx1112regex_traitsIcE10_RegexMaskESaIS4_EE12_Vector_implEEONSt16remove_referenceIT_E4typeEOSA_
FNA:0,0,_ZSt4moveIRNSt12_Vector_baseINSt7__cxx119sub_matchIN9__gnu_cxx17__normal_iteratorIPcNS1_12basic_stringIcSt11char_traitsIcESaIcEEEEEEESaISC_EE12_Vector_implEEONSt16remove_referenceIT_E4typeEOSI_
FNA:0,0,_ZSt4moveIRNSt12_Vector_baseISt4pairINSt7__cxx1112basic_stringIcSt11char_traitsIcESaIcEEES7_ESaIS8_EE12_Vector_implEEONSt16remove_referenceIT_E4typeEOSE_
FNA:0,0,_ZSt4moveIRNSt12_Vector_baseISt4pairIccESaIS2_EE12_Vector_implEEONSt16remove_referenceIT_E4typeEOS8_
FNA:0,0,_ZSt4moveIRNSt12_Vector_baseISt4pairIlSt6vectorINSt7__cxx119sub_matchIN9__gnu_cxx17__normal_iteratorIPcNS3_12basic_stringIcSt11char_traitsIcESaIcEEEEEEESaISE_EEESaISH_EE12_Vector_implEEONSt16remove_referenceIT_E4typeEOSN_
FNA:0,0,_ZSt4moveIRNSt12_Vector_baseIcSaIcEE12_Vector_implEEONSt16remove_referenceIT_E4typeEOS6_
FNA:0,104,_ZSt4moveIRNSt7__cxx1112basic_stringIcSt11char_traitsIcESaIcEEEEONSt16remove_referenceIT_E4typeEOS8_
FNA:0,0,_ZSt4moveIRNSt7__cxx1112regex_traitsIcE10_RegexMaskEEONSt16remove_referenceIT_E4typeEOS6_
FNA:0,0,_ZSt4moveIRNSt7__cxx114listINS0_12basic_stringIcSt11char_traitsIcESaIcEEESaIS6_EEEEONSt16remove_referenceIT_E4typeEOSB_
FNA:0,0,_ZSt4moveIRNSt8__detail15_BracketMatcherINSt7__cxx1112regex_traitsIcEELb0ELb0EEEEONSt16remove_referenceIT_E4typeEOS8_
FNA:0,0,_ZSt4moveIRNSt8__detail15_BracketMatcherINSt7__cxx1112regex_traitsIcEELb0ELb1EEEEONSt16remove_referenceIT_E4typeEOS8_
FNA:0,0,_ZSt4moveIRNSt8__detail15_BracketMatcherINSt7__cxx1112regex_traitsIcEELb1ELb0EEEEONSt16remove_referenceIT_E4typeEOS8_
FNA:0,0,_ZSt4moveIRNSt8__detail15_BracketMatcherINSt7__cxx1112regex_traitsIcEELb1ELb1EEEEONSt16remove_referenceIT_E4typeEOS8_
FNA:0,0,_ZSt4moveIRNSt8__detail6_StateIcEEEONSt16remove_referenceIT_E4typeEOS5_
FNA:0,0,_ZSt4moveIRNSt8__detail9_StateSeqINSt7__cxx1112regex_traitsIcEEEEEONSt16remove_referenceIT_E4typeEOS8_
FNA:0,0,_ZSt4moveIRPFbRKSt9_Any_dataOcEEONSt16remove_referenceIT_E4typeEOS8_
FNA:0,0,_ZSt4moveIRPFbRSt9_Any_dataRKS0_St18_Manager_operationEEONSt16remove_referenceIT_E4typeEOS9_
FNA:0,0,_ZSt4moveIRPKNSt8__detail4_NFAINSt7__cxx1112regex_traitsIcEEEEEONSt16remove_referenceIT_E4typeEOSA_
FNA:0,0,_ZSt4moveIRPNSt7__cxx1112basic_stringIcSt11char_traitsIcESaIcEEEEONSt16remove_referenceIT_E4typeEOS9_
FNA:0,0,_ZSt4moveIRPNSt7__cxx1118basic_stringstreamIcSt11char_traitsIcESaIcEEEEONSt16remove_referenceIT_E4typeEOS9_
FNA:0,0,_ZSt4moveIRSaINSt7__cxx119sub_matchIN9__gnu_cxx17__normal_iteratorIPcNS0_12basic_stringIcSt11char_traitsIcESaIcEEEEEEEEEONSt16remove_referenceIT_E4typeEOSF_
FNA:0,0,_ZSt4moveIRSaISt10_List_nodeINSt7__cxx1112basic_stringIcSt11char_traitsIcESaIcEEEEEEONSt16remove_referenceIT_E4typeEOSB_
FNA:0,0,_ZSt4moveIRSt10shared_ptrIKNSt8__detail4_NFAINSt7__cxx1112regex_traitsIcEEEEEEONSt16remove_referenceIT_E4typeEOSB_
FNA:0,0,_ZSt4moveIRSt10shared_ptrINSt8__detail4_NFAINSt7__cxx1112regex_traitsIcEEEEEEONSt16remove_referenceIT_E4typeEOSA_
FNA:0,0,_ZSt4moveIRSt12__shared_ptrIKNSt8__detail4_NFAINSt7__cxx1112regex_traitsIcEEEELN9__gnu_cxx12_Lock_policyE2EEEONSt16remove_referenceIT_E4typeEOSD_
FNA:0,0,_ZSt4moveIRSt4pairIKNSt7__cxx1112basic_stringIcSt11char_traitsIcESaIcEEENS1_4listIS6_SaIS6_EEEEEONSt16remove_referenceIT_E4typeEOSE_
FNA:0,0,_ZSt4moveIRSt4pairINSt7__cxx1112basic_stringIcSt11char_traitsIcESaIcEEES6_EEONSt16remove_referenceIT_E4typeEOSA_
FNA:0,0,_ZSt4moveIRSt4pairIccEEONSt16remove_referenceIT_E4typeEOS4_
FNA:0,0,_ZSt4moveIRSt4pairIlSt6vectorINSt7__cxx119sub_matchIN9__gnu_cxx17__normal_iteratorIPcNS2_12basic_stringIcSt11char_traitsIcESaIcEEEEEEESaISD_EEEEONSt16remove_referenceIT_E4typeEOSJ_
FNA:0,0,_ZSt4moveIRSt6localeEONSt16remove_referenceIT_E4typeEOS3_
FNA:0,0,_ZSt4moveIRSt6vectorINSt7__cxx119sub_matchIN9__gnu_cxx17__normal_iteratorIPcNS1_12basic_stringIcSt11char_traitsIcESaIcEEEEEEESaISC_EEEONSt16remove_referenceIT_E4typeEOSH_
FNA:0,0,_ZSt4moveIRSt6vectorISt4pairIlS0_INSt7__cxx119sub_matchIN9__gnu_cxx17__normal_iteratorIPcNS2_12basic_stringIcSt11char_traitsIcESaIcEEEEEEESaISD_EEESaISG_EEEONSt16remove_referenceIT_E4typeEOSL_
FNA:0,0,_ZSt4moveIRSt8functionIFbcEEEONSt16remove_referenceIT_E4typeEOS5_
FNA:0,0,_ZSt4moveIRSt9_Any_dataEONSt16remove_referenceIT_E4typeEOS3_
FNA:0,0,_ZSt4moveIRcEONSt16remove_referenceIT_E4typeEOS2_
FNA:0,0,_ZSt4moveIRlEONSt16remove_referenceIT_E4typeEOS2_
FNL:1,162,163
FNA:1,0,_ZSt9addressofINSt8__detail10_Hash_nodeISt4pairIKNSt7__cxx1112basic_stringIcSt11char_traitsIcESaIcEEENS3_4listIS8_SaIS8_EEEELb1EEEEPT_RSF_
FNA:1,0,_ZSt9addressofINSt8__detail10_Hash_nodeISt4pairIKNSt7__cxx1112basic_stringIcSt11char_traitsIcESaIcEEEbELb1EEEEPT_RSC_
FNA:1,0,_ZSt9addressofIPNSt8__detail15_Hash_node_baseEEPT_RS3_
FNL:2,213,224
FNA:2,0,_ZSt4swapIPFbRKSt9_Any_dataOcEENSt9enable_ifIXsrSt6__and_IJSt6__not_ISt15__is_tuple_likeIT_EESt21is_move_constructibleISA_ESt18is_move_assignableISA_EEE5valueEvE4typeERSA_SK_
FNA:2,0,_ZSt4swapIPFbRSt9_Any_dataRKS0_St18_Manager_operationEENSt9enable_ifIXsrSt6__and_IJSt6__not_ISt15__is_tuple_likeIT_EESt21is_move_constructibleISB_ESt18is_move_assignableISB_EEE5valueEvE4typeERSB_SL_
FNA:2,0,_ZSt4swapIPKNSt8__detail4_NFAINSt7__cxx1112regex_traitsIcEEEEENSt9enable_ifIXsrSt6__and_IJSt6__not_ISt15__is_tuple_likeIT_EESt21is_move_constructibleISC_ESt18is_move_assignableISC_EEE5valueEvE4typeERSC_SM_
FNA:2,0,_ZSt4swapISt6localeENSt9enable_ifIXsrSt6__and_IJSt6__not_ISt15__is_tuple_likeIT_EESt21is_move_constructibleIS5_ESt18is_move_assignableIS5_EEE5valueEvE4typeERS5_SF_
FNA:2,0,_ZSt4swapISt9_Any_dataENSt9enable_ifIXsrSt6__and_IJSt6__not_ISt15__is_tuple_likeIT_EESt21is_move_constructibleIS5_ESt18is_move_assignableIS5_EEE5valueEvE4typeERS5_SF_
FNA:2,0,_ZSt4swapIcENSt9enable_ifIXsrSt6__and_IJSt6__not_ISt15__is_tuple_likeIT_EESt21is_move_constructibleIS4_ESt18is_move_assignableIS4_EEE5valueEvE4typeERS4_SE_
FNA:2,0,_ZSt4swapIlENSt9enable_ifIXsrSt6__and_IJSt6__not_ISt15__is_tuple_likeIT_EESt21is_move_constructibleIS4_ESt18is_move_assignableIS4_EEE5valueEvE4typeERS4_SE_
FNL:3,51,52
FNA:3,0,_ZSt11__addressofIKNSt7__cxx114listINS0_12basic_stringIcSt11char_traitsIcESaIcEEESaIS6_EEEEPT_RSA_
FNA:3,0,_ZSt11__addressofIKNSt8__detail11_AnyMatcherINSt7__cxx1112regex_traitsIcEELb0ELb0ELb0EEEEPT_RS7_
FNA:3,0,_ZSt11__addressofIKNSt8__detail11_AnyMatcherINSt7__cxx1112regex_traitsIcEELb0ELb0ELb1EEEEPT_RS7_
FNA:3,0,_ZSt11__addressofIKNSt8__detail11_AnyMatcherINSt7__cxx1112regex_traitsIcEELb0ELb1ELb0EEEEPT_RS7_
FNA:3,0,_ZSt11__addressofIKNSt8__detail11_AnyMatcherINSt7__cxx1112regex_traitsIcEELb0ELb1ELb1EEEEPT_RS7_
FNA:3,0,_ZSt11__addressofIKNSt8__detail11_AnyMatcherINSt7__cxx1112regex_traitsIcEELb1ELb0ELb0EEEEPT_RS7_
FNA:3,0,_ZSt11__addressofIKNSt8__detail11_AnyMatcherINSt7__cxx1112regex_traitsIcEELb1ELb0ELb1EEEEPT_RS7_
FNA:3,0,_ZSt11__addressofIKNSt8__detail11_AnyMatcherINSt7__cxx1112regex_traitsIcEELb1ELb1ELb0EEEEPT_RS7_
FNA:3,0,_ZSt11__addressofIKNSt8__detail11_AnyMatcherINSt7__cxx1112regex_traitsIcEELb1ELb1ELb1EEEEPT_RS7_
FNA:3,0,_ZSt11__addressofIKNSt8__detail12_CharMatcherINSt7__cxx1112regex_traitsIcEELb0ELb0EEEEPT_RS7_
FNA:3,0,_ZSt11__addressofIKNSt8__detail12_CharMatcherINSt7__cxx1112regex_traitsIcEELb0ELb1EEEEPT_RS7_
FNA:3,0,_ZSt11__addressofIKNSt8__detail12_CharMatcherINSt7__cxx1112regex_traitsIcEELb1ELb0EEEEPT_RS7_
FNA:3,0,_ZSt11__addressofIKNSt8__detail12_CharMatcherINSt7__cxx1112regex_traitsIcEELb1ELb1EEEEPT_RS7_
FNA:3,0,_ZSt11__addressofIKSt6vectorINSt7__cxx119sub_matchIN9__gnu_cxx17__normal_iteratorIPcNS1_12basic_stringIcSt11char_traitsIcESaIcEEEEEEESaISC_EEEPT_RSG_
FNA:3,0,_ZSt11__addressofINSt7__cxx1112basic_stringIcSt11char_traitsIcESaIcEEEEPT_RS6_
FNA:3,0,_ZSt11__addressofINSt7__cxx1112regex_traitsIcE10_RegexMaskEEPT_RS4_
FNA:3,0,_ZSt11__addressofINSt7__cxx119sub_matchIN9__gnu_cxx17__normal_iteratorIPcNS0_12basic_stringIcSt11char_traitsIcESaIcEEEEEEEEPT_RSC_
FNA:3,0,_ZSt11__addressofINSt8__detail10_Hash_nodeISt4pairIKNSt7__cxx1112basic_stringIcSt11char_traitsIcESaIcEEENS3_4listIS8_SaIS8_EEEELb1EEEEPT_RSF_
FNA:3,0,_ZSt11__addressofINSt8__detail10_Hash_nodeISt4pairIKNSt7__cxx1112basic_stringIcSt11char_traitsIcESaIcEEEbELb1EEEEPT_RSC_
FNA:3,0,_ZSt11__addressofINSt8__detail20_Prime_rehash_policyEEPT_RS2_
FNA:3,0,_ZSt11__addressofINSt8__detail6_StateIcEEEPT_RS3_
FNA:3,0,_ZSt11__addressofIPNSt8__detail15_Hash_node_baseEEPT_RS3_
FNA:3,0,_ZSt11__addressofISaISt10_List_nodeINSt7__cxx1112basic_stringIcSt11char_traitsIcESaIcEEEEEEPT_RS9_
FNA:3,0,_ZSt11__addressofISaISt10_List_nodeIcEEEPT_RS3_
FNA:3,0,_ZSt11__addressofISaISt23_Sp_counted_ptr_inplaceINSt8__detail4_NFAINSt7__cxx1112regex_traitsIcEEEESaIvELN9__gnu_cxx12_Lock_policyE2EEEEPT_RSC_
FNA:3,0,_ZSt11__addressofISt4pairIN9__gnu_cxx17__normal_iteratorIPcNSt7__cxx1112basic_stringIcSt11char_traitsIcESaIcEEEEEiEEPT_RSC_
FNA:3,0,_ZSt11__addressofISt4pairINSt7__cxx1112basic_stringIcSt11char_traitsIcESaIcEEES6_EEPT_RS8_
FNA:3,0,_ZSt11__addressofISt4pairIccEEPT_RS2_
FNA:3,0,_ZSt11__addressofISt4pairIlSt6vectorINSt7__cxx119sub_matchIN9__gnu_cxx17__normal_iteratorIPcNS2_12basic_stringIcSt11char_traitsIcESaIcEEEEEEESaISD_EEEEPT_RSH_
FNA:3,0,_ZSt11__addressofIcEPT_RS0_
FNL:4,70,71
FNA:4,48,_ZSt7forwardINSt7__cxx1112basic_stringIcSt11char_traitsIcESaIcEEEEOT_RNSt16remove_referenceIS6_E4typeE
FNA:4,0,_ZSt7forwardINSt7__cxx1112regex_traitsIcE10_RegexMaskEEOT_RNSt16remove_referenceIS4_E4typeE
FNA:4,0,_ZSt7forwardINSt8__detail11_AnyMatcherINSt7__cxx1112regex_traitsIcEELb0ELb0ELb0EEEEOT_RNSt16remove_referenceIS6_E4typeE
FNA:4,0,_ZSt7forwardINSt8__detail11_AnyMatcherINSt7__cxx1112regex_traitsIcEELb0ELb0ELb1EEEEOT_RNSt16remove_referenceIS6_E4typeE
FNA:4,0,_ZSt7forwardINSt8__detail11_AnyMatcherINSt7__cxx1112regex_traitsIcEELb0ELb1ELb0EEEEOT_RNSt16remove_referenceIS6_E4typeE
FNA:4,0,_ZSt7forwardINSt8__detail11_AnyMatcherINSt7__cxx1112regex_traitsIcEELb0ELb1ELb1EEEEOT_RNSt16remove_referenceIS6_E4typeE
FNA:4,0,_ZSt7forwardINSt8__detail11_AnyMatcherINSt7__cxx1112regex_traitsIcEELb1ELb0ELb0EEEEOT_RNSt16remove_referenceIS6_E4typeE
FNA:4,0,_ZSt7forwardINSt8__detail11_AnyMatcherINSt7__cxx1112regex_traitsIcEELb1ELb0ELb1EEEEOT_RNSt16remove_referenceIS6_E4typeE
FNA:4,0,_ZSt7forwardINSt8__detail11_AnyMatcherINSt7__cxx1112regex_traitsIcEELb1ELb1ELb0EEEEOT_RNSt16remove_referenceIS6_E4typeE
FNA:4,0,_ZSt7forwardINSt8__detail11_AnyMatcherINSt7__cxx1112regex_traitsIcEELb1ELb1ELb1EEEEOT_RNSt16remove_referenceIS6_E4typeE
FNA:4,0,_ZSt7forwardINSt8__detail12_CharMatcherINSt7__cxx1112regex_traitsIcEELb0ELb0EEEEOT_RNSt16remove_referenceIS6_E4typeE
FNA:4,0,_ZSt7forwardINSt8__detail12_CharMatcherINSt7__cxx1112regex_traitsIcEELb0ELb1EEEEOT_RNSt16remove_referenceIS6_E4typeE
FNA:4,0,_ZSt7forwardINSt8__detail12_CharMatcherINSt7__cxx1112regex_traitsIcEELb1ELb0EEEEOT_RNSt16remove_referenceIS6_E4typeE
FNA:4,0,_ZSt7forwardINSt8__detail12_CharMatcherINSt7__cxx1112regex_traitsIcEELb1ELb1EEEEOT_RNSt16remove_referenceIS6_E4typeE
FNA:4,0,_ZSt7forwardINSt8__detail15_BracketMatcherINSt7__cxx1112regex_traitsIcEELb0ELb0EEEEOT_RNSt16remove_referenceIS6_E4typeE
FNA:4,0,_ZSt7forwardINSt8__detail15_BracketMatcherINSt7__cxx1112regex_traitsIcEELb0ELb1EEEEOT_RNSt16remove_referenceIS6_E4typeE
FNA:4,0,_ZSt7forwardINSt8__detail15_BracketMatcherINSt7__cxx1112regex_traitsIcEELb1ELb0EEEEOT_RNSt16remove_referenceIS6_E4typeE
FNA:4,0,_ZSt7forwardINSt8__detail15_BracketMatcherINSt7__cxx1112regex_traitsIcEELb1ELb1EEEEOT_RNSt16remove_referenceIS6_E4typeE
FNA:4,0,_ZSt7forwardINSt8__detail6_StateIcEEEOT_RNSt16remove_referenceIS3_E4typeE
FNA:4,0,_ZSt7forwardINSt8__detail9_StateSeqINSt7__cxx1112regex_traitsIcEEEEEOT_RNSt16remove_referenceIS6_E4typeE
FNA:4,4,_ZSt7forwardIRKNSt7__cxx1112basic_stringIcSt11char_traitsIcESaIcEEEEOT_RNSt16remove_referenceIS8_E4typeE
FNA:4,0,_ZSt7forwardIRKNSt7__cxx1112regex_traitsIcE10_RegexMaskEEOT_RNSt16remove_referenceIS6_E4typeE
FNA:4,0,_ZSt7forwardIRKNSt7__cxx119sub_matchIN9__gnu_cxx17__normal_iteratorIPcNS0_12basic_stringIcSt11char_traitsIcESaIcEEEEEEEEOT_RNSt16remove_referenceISE_E4typeE
FNA:4,0,_ZSt7forwardIRKNSt8__detail11_AnyMatcherINSt7__cxx1112regex_traitsIcEELb0ELb0ELb0EEEEOT_RNSt16remove_referenceIS8_E4typeE
FNA:4,0,_ZSt7forwardIRKNSt8__detail11_AnyMatcherINSt7__cxx1112regex_traitsIcEELb0ELb0ELb1EEEEOT_RNSt16remove_referenceIS8_E4typeE
FNA:4,0,_ZSt7forwardIRKNSt8__detail11_AnyMatcherINSt7__cxx1112regex_traitsIcEELb0ELb1ELb0EEEEOT_RNSt16remove_referenceIS8_E4typeE
FNA:4,0,_ZSt7forwardIRKNSt8__detail11_AnyMatcherINSt7__cxx1112regex_traitsIcEELb0ELb1ELb1EEEEOT_RNSt16remove_referenceIS8_E4typeE
FNA:4,0,_ZSt7forwardIRKNSt8__detail11_AnyMatcherINSt7__cxx1112regex_traitsIcEELb1ELb0ELb0EEEEOT_RNSt16remove_referenceIS8_E4typeE
FNA:4,0,_ZSt7forwardIRKNSt8__detail11_AnyMatcherINSt7__cxx1112regex_traitsIcEELb1ELb0ELb1EEEEOT_RNSt16remove_referenceIS8_E4typeE
FNA:4,0,_ZSt7forwardIRKNSt8__detail11_AnyMatcherINSt7__cxx1112regex_traitsIcEELb1ELb1ELb0EEEEOT_RNSt16remove_referenceIS8_E4typeE
FNA:4,0,_ZSt7forwardIRKNSt8__detail11_AnyMatcherINSt7__cxx1112regex_traitsIcEELb1ELb1ELb1EEEEOT_RNSt16remove_referenceIS8_E4typeE
FNA:4,0,_ZSt7forwardIRKNSt8__detail12_CharMatcherINSt7__cxx1112regex_traitsIcEELb0ELb0EEEEOT_RNSt16remove_referenceIS8_E4typeE
FNA:4,0,_ZSt7forwardIRKNSt8__detail12_CharMatcherINSt7__cxx1112regex_traitsIcEELb0ELb1EEEEOT_RNSt16remove_referenceIS8_E4typeE
FNA:4,0,_ZSt7forwardIRKNSt8__detail12_CharMatcherINSt7__cxx1112regex_traitsIcEELb1ELb0EEEEOT_RNSt16remove_referenceIS8_E4typeE
FNA:4,0,_ZSt7forwardIRKNSt8__detail12_CharMatcherINSt7__cxx1112regex_traitsIcEELb1ELb1EEEEOT_RNSt16remove_referenceIS8_E4typeE
FNA:4,0,_ZSt7forwardIRKNSt8__detail15_BracketMatcherINSt7__cxx1112regex_traitsIcEELb0ELb0EEEEOT_RNSt16remove_referenceIS8_E4typeE
FNA:4,0,_ZSt7forwardIRKNSt8__detail15_BracketMatcherINSt7__cxx1112regex_traitsIcEELb0ELb1EEEEOT_RNSt16remove_referenceIS8_E4typeE
FNA:4,0,_ZSt7forwardIRKNSt8__detail15_BracketMatcherINSt7__cxx1112regex_traitsIcEELb1ELb0EEEEOT_RNSt16remove_referenceIS8_E4typeE
FNA:4,0,_ZSt7forwardIRKNSt8__detail15_BracketMatcherINSt7__cxx1112regex_traitsIcEELb1ELb1EEEEOT_RNSt16remove_referenceIS8_E4typeE
FNA:4,0,_ZSt7forwardIRKNSt8__detail9_StateSeqINSt7__cxx1112regex_traitsIcEEEEEOT_RNSt16remove_referenceIS8_E4typeE
FNA:4,0,_ZSt7forwardIRKSt21piecewise_construct_tEOT_RNSt16remove_referenceIS3_E4typeE
FNA:4,0,_ZSt7forwardIRKSt4pairIKNSt7__cxx1112basic_stringIcSt11char_traitsIcESaIcEEENS1_4listIS6_SaIS6_EEEEEOT_RNSt16remove_referenceISE_E4typeE
FNA:4,0,_ZSt7forwardIRKSt4pairIKNSt7__cxx1112basic_stringIcSt11char_traitsIcESaIcEEEbEEOT_RNSt16remove_referenceISB_E4typeE
FNA:4,0,_ZSt7forwardIRKSt4pairINSt7__cxx1112basic_stringIcSt11char_traitsIcESaIcEEES6_EEOT_RNSt16remove_referenceISA_E4typeE
FNA:4,0,_ZSt7forwardIRKSt4pairIccEEOT_RNSt16remove_referenceIS4_E4typeE
FNA:4,0,_ZSt7forwardIRKSt6localeEOT_RNSt16remove_referenceIS3_E4typeE
FNA:4,0,_ZSt7forwardIRKSt6vectorINSt7__cxx119sub_matchIN9__gnu_cxx17__normal_iteratorIPcNS1_12basic_stringIcSt11char_traitsIcESaIcEEEEEEESaISC_EEEOT_RNSt16remove_referenceISH_E4typeE
FNA:4,0,_ZSt7forwardIRKcEOT_RNSt16remove_referenceIS2_E4typeE
FNA:4,0,_ZSt7forwardIRKlEOT_RNSt16remove_referenceIS2_E4typeE
FNA:4,0,_ZSt7forwardIRKmEOT_RNSt16remove_referenceIS2_E4typeE
FNA:4,0,_ZSt7forwardIRNSt15regex_constants18syntax_option_typeEEOT_RNSt16remove_referenceIS3_E4typeE
FNA:4,0,_ZSt7forwardIRNSt7__cxx119sub_matchIN9__gnu_cxx17__normal_iteratorIPcNS0_12basic_stringIcSt11char_traitsIcESaIcEEEEEEEEOT_RNSt16remove_referenceISD_E4typeE
FNA:4,0,_ZSt7forwardIRNSt8__detail11_AnyMatcherINSt7__cxx1112regex_traitsIcEELb0ELb0ELb0EEEEOT_RNSt16remove_referenceIS7_E4typeE
FNA:4,0,_ZSt7forwardIRNSt8__detail11_AnyMatcherINSt7__cxx1112regex_traitsIcEELb0ELb0ELb1EEEEOT_RNSt16remove_referenceIS7_E4typeE
FNA:4,0,_ZSt7forwardIRNSt8__detail11_AnyMatcherINSt7__cxx1112regex_traitsIcEELb0ELb1ELb0EEEEOT_RNSt16remove_referenceIS7_E4typeE
FNA:4,0,_ZSt7forwardIRNSt8__detail11_AnyMatcherINSt7__cxx1112regex_traitsIcEELb0ELb1ELb1EEEEOT_RNSt16remove_referenceIS7_E4typeE
FNA:4,0,_ZSt7forwardIRNSt8__detail11_AnyMatcherINSt7__cxx1112regex_traitsIcEELb1ELb0ELb0EEEEOT_RNSt16remove_referenceIS7_E4typeE
FNA:4,0,_ZSt7forwardIRNSt8__detail11_AnyMatcherINSt7__cxx1112regex_traitsIcEELb1ELb0ELb1EEEEOT_RNSt16remove_referenceIS7_E4typeE
FNA:4,0,_ZSt7forwardIRNSt8__detail11_AnyMatcherINSt7__cxx1112regex_traitsIcEELb1ELb1ELb0EEEEOT_RNSt16remove_referenceIS7_E4typeE
FNA:4,0,_ZSt7forwardIRNSt8__detail11_AnyMatcherINSt7__cxx1112regex_traitsIcEELb1ELb1ELb1EEEEOT_RNSt16remove_referenceIS7_E4typeE
FNA:4,0,_ZSt7forwardIRNSt8__detail12_CharMatcherINSt7__cxx1112regex_traitsIcEELb0ELb0EEEEOT_RNSt16remove_referenceIS7_E4typeE
FNA:4,0,_ZSt7forwardIRNSt8__detail12_CharMatcherINSt7__cxx1112regex_traitsIcEELb0ELb1EEEEOT_RNSt16remove_referenceIS7_E4typeE
FNA:4,0,_ZSt7forwardIRNSt8__detail12_CharMatcherINSt7__cxx1112regex_traitsIcEELb1ELb0EEEEOT_RNSt16remove_referenceIS7_E4typeE
FNA:4,0,_ZSt7forwardIRNSt8__detail12_CharMatcherINSt7__cxx1112regex_traitsIcEELb1ELb1EEEEOT_RNSt16remove_referenceIS7_E4typeE
FNA:4,0,_ZSt7forwardIRNSt8__detail15_BracketMatcherINSt7__cxx1112regex_traitsIcEELb0ELb0EEEEOT_RNSt16remove_referenceIS7_E4typeE
FNA:4,0,_ZSt7forwardIRNSt8__detail15_BracketMatcherINSt7__cxx1112regex_traitsIcEELb0ELb1EEEEOT_RNSt16remove_referenceIS7_E4typeE
FNA:4,0,_ZSt7forwardIRNSt8__detail15_BracketMatcherINSt7__cxx1112regex_traitsIcEELb1ELb0EEEEOT_RNSt16remove_referenceIS7_E4typeE
FNA:4,0,_ZSt7forwardIRNSt8__detail15_BracketMatcherINSt7__cxx1112regex_traitsIcEELb1ELb1EEEEOT_RNSt16remove_referenceIS7_E4typeE
FNA:4,0,_ZSt7forwardIRPSt13_Rb_tree_nodeISt4pairIKllEEEOT_RNSt16remove_referenceIS7_E4typeE
FNA:4,0,_ZSt7forwardIRPSt18_Rb_tree_node_baseEOT_RNSt16remove_referenceIS3_E4typeE
FNA:4,0,_ZSt7forwardIRlEOT_RNSt16remove_referenceIS1_E4typeE
FNA:4,0,_ZSt7forwardISaINSt8__detail10_Hash_nodeISt4pairIKNSt7__cxx1112basic_stringIcSt11char_traitsIcESaIcEEENS3_4listIS8_SaIS8_EEEELb1EEEEEOT_RNSt16remove_referenceISG_E4typeE
FNA:4,0,_ZSt7forwardISt4pairINSt7__cxx1112basic_stringIcSt11char_traitsIcESaIcEEES6_EEOT_RNSt16remove_referenceIS8_E4typeE
FNA:4,0,_ZSt7forwardISt4pairIccEEOT_RNSt16remove_referenceIS2_E4typeE
FNA:4,0,_ZSt7forwardISt4pairIlSt6vectorINSt7__cxx119sub_matchIN9__gnu_cxx17__normal_iteratorIPcNS2_12basic_stringIcSt11char_traitsIcESaIcEEEEEEESaISD_EEEEOT_RNSt16remove_referenceISH_E4typeE
FNA:4,0,_ZSt7forwardISt5tupleIJEEEOT_RNSt16remove_referenceIS2_E4typeE
FNA:4,0,_ZSt7forwardISt5tupleIJRKNSt7__cxx1112basic_stringIcSt11char_traitsIcESaIcEEEEEEOT_RNSt16remove_referenceISA_E4typeE
FNA:4,0,_ZSt7forwardISt5tupleIJRKlEEEOT_RNSt16remove_referenceIS4_E4typeE
FNA:4,0,_ZSt7forwardIcEOT_RNSt16remove_referenceIS0_E4typeE
FNF:5
FNH:2
DA:51,0
DA:52,0
DA:70,52
DA:71,52
DA:126,104
DA:127,104
DA:162,0
DA:163,0
DA:213,0
DA:221,0
DA:222,0
DA:223,0
DA:224,0
LF:13
LH:4
end_of_record
TN:
SF:/opt/local/include/gcc14/c++/bits/new_allocator.h
FNL:0,104,104
FNA:0,38,_ZNSt15__new_allocatorINSt7__cxx1112basic_stringIcSt11char_traitsIcESaIcEEEED2Ev
FNA:0,0,_ZNSt15__new_allocatorINSt7__cxx1112regex_traitsIcE10_RegexMaskEED2Ev
FNA:0,0,_ZNSt15__new_allocatorINSt7__cxx119sub_matchIN9__gnu_cxx17__normal_iteratorIPcNS0_12basic_stringIcSt11char_traitsIcESaIcEEEEEEEED2Ev
FNA:0,0,_ZNSt15__new_allocatorINSt8__detail10_Hash_nodeISt4pairIKNSt7__cxx1112basic_stringIcSt11char_traitsIcESaIcEEENS3_4listIS8_SaIS8_EEEELb1EEEED2Ev
FNA:0,0,_ZNSt15__new_allocatorINSt8__detail10_Hash_nodeISt4pairIKNSt7__cxx1112basic_stringIcSt11char_traitsIcESaIcEEEbELb1EEEED2Ev
FNA:0,0,_ZNSt15__new_allocatorINSt8__detail6_StateIcEEED2Ev
FNA:0,0,_ZNSt15__new_allocatorINSt8__detail9_StateSeqINSt7__cxx1112regex_traitsIcEEEEED2Ev
FNA:0,0,_ZNSt15__new_allocatorIPNSt8__detail15_Hash_node_baseEED2Ev
FNA:0,0,_ZNSt15__new_allocatorIPNSt8__detail9_StateSeqINSt7__cxx1112regex_traitsIcEEEEED2Ev
FNA:0,0,_ZNSt15__new_allocatorIPlED2Ev
FNA:0,0,_ZNSt15__new_allocatorISt10_List_nodeINSt7__cxx1112basic_stringIcSt11char_traitsIcESaIcEEEEED2Ev
FNA:0,0,_ZNSt15__new_allocatorISt10_List_nodeIcEED2Ev
FNA:0,0,_ZNSt15__new_allocatorISt13_Rb_tree_nodeISt4pairIKllEEED2Ev
FNA:0,0,_ZNSt15__new_allocatorISt23_Sp_counted_ptr_inplaceINSt8__detail4_NFAINSt7__cxx1112regex_traitsIcEEEESaIvELN9__gnu_cxx12_Lock_policyE2EEED2Ev
FNA:0,0,_ZNSt15__new_allocatorISt4pairIN9__gnu_cxx17__normal_iteratorIPcNSt7__cxx1112basic_stringIcSt11char_traitsIcESaIcEEEEEiEED2Ev
FNA:0,0,_ZNSt15__new_allocatorISt4pairINSt7__cxx1112basic_stringIcSt11char_traitsIcESaIcEEES6_EED2Ev
FNA:0,0,_ZNSt15__new_allocatorISt4pairIccEED2Ev
FNA:0,0,_ZNSt15__new_allocatorISt4pairIlSt6vectorINSt7__cxx119sub_matchIN9__gnu_cxx17__normal_iteratorIPcNS2_12basic_stringIcSt11char_traitsIcESaIcEEEEEEESaISD_EEEED2Ev
FNA:0,72,_ZNSt15__new_allocatorIcED2Ev
FNA:0,0,_ZNSt15__new_allocatorIlED2Ev
FNA:0,0,_ZNSt15__new_allocatorImED2Ev
FNL:1,126,152
FNA:1,12,_ZNSt15__new_allocatorINSt7__cxx1112basic_stringIcSt11char_traitsIcESaIcEEEE8allocateEmPKv
FNA:1,0,_ZNSt15__new_allocatorINSt7__cxx1112regex_traitsIcE10_RegexMaskEE8allocateEmPKv
FNA:1,0,_ZNSt15__new_allocatorINSt7__cxx119sub_matchIN9__gnu_cxx17__normal_iteratorIPcNS0_12basic_stringIcSt11char_traitsIcESaIcEEEEEEEE8allocateEmPKv
FNA:1,0,_ZNSt15__new_allocatorINSt8__detail10_Hash_nodeISt4pairIKNSt7__cxx1112basic_stringIcSt11char_traitsIcESaIcEEENS3_4listIS8_SaIS8_EEEELb1EEEE8allocateEmPKv
FNA:1,0,_ZNSt15__new_allocatorINSt8__detail10_Hash_nodeISt4pairIKNSt7__cxx1112basic_stringIcSt11char_traitsIcESaIcEEEbELb1EEEE8allocateEmPKv
FNA:1,0,_ZNSt15__new_allocatorINSt8__detail6_StateIcEEE8allocateEmPKv
FNA:1,0,_ZNSt15__new_allocatorINSt8__detail9_StateSeqINSt7__cxx1112regex_traitsIcEEEEE8allocateEmPKv
FNA:1,0,_ZNSt15__new_allocatorIPNSt8__detail15_Hash_node_baseEE8allocateEmPKv
FNA:1,0,_ZNSt15__new_allocatorIPNSt8__detail9_StateSeqINSt7__cxx1112regex_traitsIcEEEEE8allocateEmPKv
FNA:1,0,_ZNSt15__new_allocatorIPlE8allocateEmPKv
FNA:1,0,_ZNSt15__new_allocatorISt10_List_nodeINSt7__cxx1112basic_stringIcSt11char_traitsIcESaIcEEEEE8allocateEmPKv
FNA:1,0,_ZNSt15__new_allocatorISt10_List_nodeIcEE8allocateEmPKv
FNA:1,0,_ZNSt15__new_allocatorISt13_Rb_tree_nodeISt4pairIKllEEE8allocateEmPKv
FNA:1,0,_ZNSt15__new_allocatorISt23_Sp_counted_ptr_inplaceINSt8__detail4_NFAINSt7__cxx1112regex_traitsIcEEEESaIvELN9__gnu_cxx12_Lock_policyE2EEE8allocateEmPKv
FNA:1,0,_ZNSt15__new_allocatorISt4pairIN9__gnu_cxx17__normal_iteratorIPcNSt7__cxx1112basic_stringIcSt11char_traitsIcESaIcEEEEEiEE8allocateEmPKv
FNA:1,0,_ZNSt15__new_allocatorISt4pairINSt7__cxx1112basic_stringIcSt11char_traitsIcESaIcEEES6_EE8allocateEmPKv
FNA:1,0,_ZNSt15__new_allocatorISt4pairIccEE8allocateEmPKv
FNA:1,0,_ZNSt15__new_allocatorISt4pairIlSt6vectorINSt7__cxx119sub_matchIN9__gnu_cxx17__normal_iteratorIPcNS2_12basic_stringIcSt11char_traitsIcESaIcEEEEEEESaISD_EEEE8allocateEmPKv
FNA:1,0,_ZNSt15__new_allocatorIcE8allocateEmPKv
FNA:1,0,_ZNSt15__new_allocatorIlE8allocateEmPKv
FNA:1,0,_ZNSt15__new_allocatorImE8allocateEmPKv
FNL:2,156,173
FNA:2,11,_ZNSt15__new_allocatorINSt7__cxx1112basic_stringIcSt11char_traitsIcESaIcEEEE10deallocateEPS5_m
FNA:2,0,_ZNSt15__new_allocatorINSt7__cxx1112regex_traitsIcE10_RegexMaskEE10deallocateEPS3_m
FNA:2,0,_ZNSt15__new_allocatorINSt7__cxx119sub_matchIN9__gnu_cxx17__normal_iteratorIPcNS0_12basic_stringIcSt11char_traitsIcESaIcEEEEEEEE10deallocateEPSB_m
FNA:2,0,_ZNSt15__new_allocatorINSt8__detail10_Hash_nodeISt4pairIKNSt7__cxx1112basic_stringIcSt11char_traitsIcESaIcEEENS3_4listIS8_SaIS8_EEEELb1EEEE10deallocateEPSE_m
FNA:2,0,_ZNSt15__new_allocatorINSt8__detail10_Hash_nodeISt4pairIKNSt7__cxx1112basic_stringIcSt11char_traitsIcESaIcEEEbELb1EEEE10deallocateEPSB_m
FNA:2,0,_ZNSt15__new_allocatorINSt8__detail6_StateIcEEE10deallocateEPS2_m
FNA:2,0,_ZNSt15__new_allocatorINSt8__detail9_StateSeqINSt7__cxx1112regex_traitsIcEEEEE10deallocateEPS5_m
FNA:2,0,_ZNSt15__new_allocatorIPNSt8__detail15_Hash_node_baseEE10deallocateEPS2_m
FNA:2,0,_ZNSt15__new_allocatorIPNSt8__detail9_StateSeqINSt7__cxx1112regex_traitsIcEEEEE10deallocateEPS6_m
FNA:2,0,_ZNSt15__new_allocatorIPlE10deallocateEPS0_m
FNA:2,0,_ZNSt15__new_allocatorISt10_List_nodeINSt7__cxx1112basic_stringIcSt11char_traitsIcESaIcEEEEE10deallocateEPS7_m
FNA:2,0,_ZNSt15__new_allocatorISt10_List_nodeIcEE10deallocateEPS1_m
FNA:2,0,_ZNSt15__new_allocatorISt13_Rb_tree_nodeISt4pairIKllEEE10deallocateEPS4_m
FNA:2,0,_ZNSt15__new_allocatorISt23_Sp_counted_ptr_inplaceINSt8__detail4_NFAINSt7__cxx1112regex_traitsIcEEEESaIvELN9__gnu_cxx12_Lock_policyE2EEE10deallocateEPSA_m
FNA:2,0,_ZNSt15__new_allocatorISt4pairIN9__gnu_cxx17__normal_iteratorIPcNSt7__cxx1112basic_stringIcSt11char_traitsIcESaIcEEEEEiEE10deallocateEPSB_m
FNA:2,0,_ZNSt15__new_allocatorISt4pairINSt7__cxx1112basic_stringIcSt11char_traitsIcESaIcEEES6_EE10deallocateEPS7_m
FNA:2,0,_ZNSt15__new_allocatorISt4pairIccEE10deallocateEPS1_m
FNA:2,0,_ZNSt15__new_allocatorISt4pairIlSt6vectorINSt7__cxx119sub_matchIN9__gnu_cxx17__normal_iteratorIPcNS2_12basic_stringIcSt11char_traitsIcESaIcEEEEEEESaISD_EEEE10deallocateEPSG_m
FNA:2,0,_ZNSt15__new_allocatorIcE10deallocateEPcm
FNA:2,0,_ZNSt15__new_allocatorIlE10deallocateEPlm
FNA:2,0,_ZNSt15__new_allocatorImE10deallocateEPmm
FNF:3
FNH:3
DA:88,14
DA:92,7
DA:104,110
DA:126,12
DA:134,12
DA:138,0
DA:139,0
DA:140,0
DA:151,12
DA:156,11
DA:172,11
DA:183,19
DA:191,3
DA:198,3
DA:233,31
LF:15
LH:12
end_of_record
TN:
SF:/opt/local/include/gcc14/c++/bits/predefined_ops.h
FNL:0,108,109
FNA:0,0,_ZN9__gnu_cxx5__ops15__val_comp_iterENS0_15_Iter_less_iterE
FNL:1,116,117
FNA:1,0,_ZNK9__gnu_cxx5__ops19_Iter_equal_to_iterclINS_17__normal_iteratorIPcSt6vectorIcSaIcEEEES8_EEbT_T0_
FNL:2,122,123
FNA:2,0,_ZN9__gnu_cxx5__ops20__iter_equal_to_iterEv
FNL:3,262,264
FNA:3,0,_ZN9__gnu_cxx5__ops16_Iter_equals_valIKNSt7__cxx1112basic_stringIcSt11char_traitsIcESaIcEEEEC1ERS8_
FNA:3,0,_ZN9__gnu_cxx5__ops16_Iter_equals_valIKcEC1ERS2_
FNL:4,269,270
FNA:4,0,_ZN9__gnu_cxx5__ops16_Iter_equals_valIKNSt7__cxx1112basic_stringIcSt11char_traitsIcESaIcEEEEclINS_17__normal_iteratorIPS8_St6vectorIS7_SaIS7_EEEEEEbT_
FNA:4,0,_ZN9__gnu_cxx5__ops16_Iter_equals_valIKcEclIPS2_EEbT_
FNL:5,276,277
FNA:5,0,_ZN9__gnu_cxx5__ops17__iter_equals_valIKNSt7__cxx1112basic_stringIcSt11char_traitsIcESaIcEEEEENS0_16_Iter_equals_valIT_EERSA_
FNA:5,0,_ZN9__gnu_cxx5__ops17__iter_equals_valIKcEENS0_16_Iter_equals_valIT_EERS4_
FNL:6,44,45
FNA:6,0,_ZNK9__gnu_cxx5__ops15_Iter_less_iterclINS_17__normal_iteratorIPcSt6vectorIcSaIcEEEES8_EEbT_T0_
FNL:7,50,51
FNA:7,0,_ZN9__gnu_cxx5__ops16__iter_less_iterEv
FNL:8,63,63
FNA:8,0,_ZN9__gnu_cxx5__ops14_Iter_less_valC1ENS0_15_Iter_less_iterE
FNL:9,68,69
FNA:9,0,_ZNK9__gnu_cxx5__ops14_Iter_less_valclINS_17__normal_iteratorIPKcSt6vectorIcSaIcEEEES4_EEbT_RT0_
FNA:9,0,_ZNK9__gnu_cxx5__ops14_Iter_less_valclINS_17__normal_iteratorIPcSt6vectorIcSaIcEEEEcEEbT_RT0_
FNL:10,74,75
FNA:10,0,_ZN9__gnu_cxx5__ops15__iter_less_valEv
FNL:11,97,98
FNA:11,0,_ZNK9__gnu_cxx5__ops14_Val_less_iterclIcNS_17__normal_iteratorIPcSt6vectorIcSaIcEEEEEEbRT_T0_
FNF:12
FNH:0
DA:44,0
DA:45,0
DA:50,0
DA:51,0
DA:63,0
DA:68,0
DA:69,0
DA:74,0
DA:75,0
DA:97,0
DA:98,0
DA:108,0
DA:109,0
DA:116,0
DA:117,0
DA:122,0
DA:123,0
DA:262,0
DA:263,0
DA:264,0
DA:269,0
DA:270,0
DA:276,0
DA:277,0
LF:24
LH:0
end_of_record
TN:
SF:/opt/local/include/gcc14/c++/bits/ptr_traits.h
FNL:0,134,135
FNA:0,0,_ZNSt19__ptr_traits_ptr_toIPNSt8__detail10_Hash_nodeISt4pairIKNSt7__cxx1112basic_stringIcSt11char_traitsIcESaIcEEENS3_4listIS8_SaIS8_EEEELb1EEESE_Lb0EE10pointer_toERSE_
FNA:0,0,_ZNSt19__ptr_traits_ptr_toIPNSt8__detail10_Hash_nodeISt4pairIKNSt7__cxx1112basic_stringIcSt11char_traitsIcESaIcEEEbELb1EEESB_Lb0EE10pointer_toERSB_
FNA:0,0,_ZNSt19__ptr_traits_ptr_toIPPNSt8__detail15_Hash_node_baseES2_Lb0EE10pointer_toERS2_
FNL:1,205,209
FNA:1,0,_ZSt12__to_addressINSt7__cxx1112basic_stringIcSt11char_traitsIcESaIcEEEEPT_S7_
FNA:1,0,_ZSt12__to_addressINSt7__cxx1112regex_traitsIcE10_RegexMaskEEPT_S5_
FNA:1,0,_ZSt12__to_addressINSt8__detail10_Hash_nodeISt4pairIKNSt7__cxx1112basic_stringIcSt11char_traitsIcESaIcEEENS3_4listIS8_SaIS8_EEEELb1EEEEPT_SG_
FNA:1,0,_ZSt12__to_addressINSt8__detail10_Hash_nodeISt4pairIKNSt7__cxx1112basic_stringIcSt11char_traitsIcESaIcEEEbELb1EEEEPT_SD_
FNA:1,0,_ZSt12__to_addressINSt8__detail6_StateIcEEEPT_S4_
FNA:1,0,_ZSt12__to_addressIPNSt8__detail15_Hash_node_baseEEPT_S4_
FNA:1,0,_ZSt12__to_addressISt23_Sp_counted_ptr_inplaceINSt8__detail4_NFAINSt7__cxx1112regex_traitsIcEEEESaIvELN9__gnu_cxx12_Lock_policyE2EEEPT_SC_
FNA:1,0,_ZSt12__to_addressISt4pairINSt7__cxx1112basic_stringIcSt11char_traitsIcESaIcEEES6_EEPT_S9_
FNA:1,0,_ZSt12__to_addressISt4pairIccEEPT_S3_
FNA:1,0,_ZSt12__to_addressISt4pairIlSt6vectorINSt7__cxx119sub_matchIN9__gnu_cxx17__normal_iteratorIPcNS2_12basic_stringIcSt11char_traitsIcESaIcEEEEEEESaISD_EEEEPT_SI_
FNA:1,0,_ZSt12__to_addressIcEPT_S1_
FNA:1,0,_ZSt12__to_addressImEPT_S1_
FNF:2
FNH:0
DA:134,0
DA:135,0
DA:205,0
DA:208,0
LF:4
LH:0
end_of_record
TN:
SF:/opt/local/include/gcc14/c++/bits/regex.h
FNL:0,1025,1025
FNA:0,0,_ZNSt7__cxx119sub_matchIN9__gnu_cxx17__normal_iteratorIPcNS_12basic_stringIcSt11char_traitsIcESaIcEEEEEE13__string_viewC1Ev
FNL:1,1027,1028
FNA:1,0,_ZNSt7__cxx119sub_matchIN9__gnu_cxx17__normal_iteratorIPcNS_12basic_stringIcSt11char_traitsIcESaIcEEEEEE13__string_viewC1EPKcm
FNL:2,1037,1049
FNA:2,0,_ZNKSt7__cxx119sub_matchIN9__gnu_cxx17__normal_iteratorIPcNS_12basic_stringIcSt11char_traitsIcESaIcEEEEEE13__string_view7compareESB_
FNL:3,1060,1066
FNA:3,0,_ZNKSt7__cxx119sub_matchIN9__gnu_cxx17__normal_iteratorIPcNS_12basic_stringIcSt11char_traitsIcESaIcEEEEEE6_M_strIS9_EENSt9enable_ifIXsrNSt8__detail20__is_contiguous_iterIT_EE5valueENSA_13__string_viewEE4typeEv
FNL:4,1103,1104
FNA:4,0,_ZNSt7__cxx11eqIN9__gnu_cxx17__normal_iteratorIPcNS_12basic_stringIcSt11char_traitsIcESaIcEEEEEEEbRKNS_9sub_matchIT_EESE_
FNL:5,112,115
FNA:5,0,_ZNSt7__cxx1112regex_traitsIcE10_RegexMaskC1Emh
FNL:6,118,122
FNA:6,0,_ZNKSt7__cxx1112regex_traitsIcE10_RegexMaskanES2_
FNL:7,125,129
FNA:7,0,_ZNKSt7__cxx1112regex_traitsIcE10_RegexMaskorES2_
FNL:8,147,148
FNA:8,0,_ZNSt7__cxx1112regex_traitsIcE10_RegexMaskoRES2_
FNL:9,155,160
FNA:9,0,_ZNKSt7__cxx1112regex_traitsIcE10_RegexMaskeqES2_
FNL:10,164,165
FNA:10,0,_ZNKSt7__cxx1112regex_traitsIcE10_RegexMaskneES2_
FNL:11,176,176
FNA:11,0,_ZNSt7__cxx1112regex_traitsIcEC1Ev
FNL:12,1801,1801
FNA:12,0,_ZNSt7__cxx1113match_resultsIN9__gnu_cxx17__normal_iteratorIPcNS_12basic_stringIcSt11char_traitsIcESaIcEEEEESaINS_9sub_matchIS9_EEEEC1Ev
FNL:13,1808,1810
FNA:13,0,_ZNSt7__cxx1113match_resultsIN9__gnu_cxx17__normal_iteratorIPcNS_12basic_stringIcSt11char_traitsIcESaIcEEEEESaINS_9sub_matchIS9_EEEEC1ERKSC_
FNL:14,1826,1826
FNA:14,0,_ZNSt7__cxx1113match_resultsIN9__gnu_cxx17__normal_iteratorIPcNS_12basic_stringIcSt11char_traitsIcESaIcEEEEESaINS_9sub_matchIS9_EEEEaSERKSD_
FNL:15,1837,1837
FNA:15,0,_ZNSt7__cxx1113match_resultsIN9__gnu_cxx17__normal_iteratorIPcNS_12basic_stringIcSt11char_traitsIcESaIcEEEEESaINS_9sub_matchIS9_EEEED1Ev
FNL:16,1857,1857
FNA:16,0,_ZNKSt7__cxx1113match_resultsIN9__gnu_cxx17__normal_iteratorIPcNS_12basic_stringIcSt11char_traitsIcESaIcEEEEESaINS_9sub_matchIS9_EEEE5readyEv
FNL:17,1874,1875
FNA:17,0,_ZNKSt7__cxx1113match_resultsIN9__gnu_cxx17__normal_iteratorIPcNS_12basic_stringIcSt11char_traitsIcESaIcEEEEESaINS_9sub_matchIS9_EEEE4sizeEv
FNL:18,1887,1888
FNA:18,0,_ZNKSt7__cxx1113match_resultsIN9__gnu_cxx17__normal_iteratorIPcNS_12basic_stringIcSt11char_traitsIcESaIcEEEEESaINS_9sub_matchIS9_EEEE5emptyEv
FNL:19,189,190
FNA:19,0,_ZNSt7__cxx1112regex_traitsIcE6lengthEPKc
FNL:20,1949,1955
FNA:20,0,_ZNKSt7__cxx1113match_resultsIN9__gnu_cxx17__normal_iteratorIPcNS_12basic_stringIcSt11char_traitsIcESaIcEEEEESaINS_9sub_matchIS9_EEEEixEm
FNL:21,1966,1970
FNA:21,0,_ZNKSt7__cxx1113match_resultsIN9__gnu_cxx17__normal_iteratorIPcNS_12basic_stringIcSt11char_traitsIcESaIcEEEEESaINS_9sub_matchIS9_EEEE6prefixEv
FNL:22,1981,1985
FNA:22,0,_ZNKSt7__cxx1113match_resultsIN9__gnu_cxx17__normal_iteratorIPcNS_12basic_stringIcSt11char_traitsIcESaIcEEEEESaINS_9sub_matchIS9_EEEE6suffixEv
FNL:23,200,201
FNA:23,0,_ZNKSt7__cxx1112regex_traitsIcE9translateEc
FNL:24,2128,2129
FNA:24,0,_ZNSt7__cxx1113match_resultsIN9__gnu_cxx17__normal_iteratorIPcNS_12basic_stringIcSt11char_traitsIcESaIcEEEEESaINS_9sub_matchIS9_EEEE9_M_resizeEj
FNL:25,213,218
FNA:25,0,_ZNKSt7__cxx1112regex_traitsIcE16translate_nocaseEc
FNL:26,2133,2138
FNA:26,0,_ZNSt7__cxx1113match_resultsIN9__gnu_cxx17__normal_iteratorIPcNS_12basic_stringIcSt11char_traitsIcESaIcEEEEESaINS_9sub_matchIS9_EEEE25_M_establish_failed_matchES9_
FNL:27,2141,2142
FNA:27,0,_ZNKSt7__cxx1113match_resultsIN9__gnu_cxx17__normal_iteratorIPcNS_12basic_stringIcSt11char_traitsIcESaIcEEEEESaINS_9sub_matchIS9_EEEE16_M_unmatched_subEv
FNL:28,2149,2150
FNA:28,0,_ZNKSt7__cxx1113match_resultsIN9__gnu_cxx17__normal_iteratorIPcNS_12basic_stringIcSt11char_traitsIcESaIcEEEEESaINS_9sub_matchIS9_EEEE9_M_prefixEv
FNL:29,2153,2154
FNA:29,0,_ZNSt7__cxx1113match_resultsIN9__gnu_cxx17__normal_iteratorIPcNS_12basic_stringIcSt11char_traitsIcESaIcEEEEESaINS_9sub_matchIS9_EEEE9_M_prefixEv
FNL:30,2157,2158
FNA:30,0,_ZNKSt7__cxx1113match_resultsIN9__gnu_cxx17__normal_iteratorIPcNS_12basic_stringIcSt11char_traitsIcESaIcEEEEESaINS_9sub_matchIS9_EEEE9_M_suffixEv
FNL:31,2161,2162
FNA:31,0,_ZNSt7__cxx1113match_resultsIN9__gnu_cxx17__normal_iteratorIPcNS_12basic_stringIcSt11char_traitsIcESaIcEEEEESaINS_9sub_matchIS9_EEEE9_M_suffixEv
FNL:32,2418,2426
FNA:32,0,_ZSt12regex_searchIN9__gnu_cxx17__normal_iteratorIPcNSt7__cxx1112basic_stringIcSt11char_traitsIcESaIcEEEEESaINS3_9sub_matchIS9_EEEcNS3_12regex_traitsIcEEEbT_SF_RNS3_13match_resultsISF_T0_EERKNS3_11basic_regexIT1_T2_EENSt15regex_constants15match_flag_typeE
FNL:33,242,248
FNA:33,0,_ZNKSt7__cxx1112regex_traitsIcE9transformIN9__gnu_cxx17__normal_iteratorIPcNS_12basic_stringIcSt11char_traitsIcESaIcEEEEEEESA_T_SC_
FNA:33,0,_ZNKSt7__cxx1112regex_traitsIcE9transformIPcEENS_12basic_stringIcSt11char_traitsIcESaIcEEET_S9_
FNL:34,2602,2611
FNA:34,0,_ZSt13regex_replaceISt20back_insert_iteratorINSt7__cxx1112basic_stringIcSt11char_traitsIcESaIcEEEEN9__gnu_cxx17__normal_iteratorIPcS6_EENS1_12regex_traitsIcEEcET_SE_T0_SF_RKNS1_11basic_regexIT2_T1_EEPKSH_NSt15regex_constants15match_flag_typeE
FNL:35,266,279
FNA:35,0,_ZNKSt7__cxx1112regex_traitsIcE17transform_primaryIPKcEENS_12basic_stringIcSt11char_traitsIcESaIcEEET_SA_
FNA:35,0,_ZNKSt7__cxx1112regex_traitsIcE17transform_primaryIPcEENS_12basic_stringIcSt11char_traitsIcESaIcEEET_S9_
FNL:36,2751,2751
FNA:36,0,_ZNSt7__cxx1114regex_iteratorIN9__gnu_cxx17__normal_iteratorIPcNS_12basic_stringIcSt11char_traitsIcESaIcEEEEEcNS_12regex_traitsIcEEEC1Ev
FNL:37,2760,2767
FNA:37,0,_ZNSt7__cxx1114regex_iteratorIN9__gnu_cxx17__normal_iteratorIPcNS_12basic_stringIcSt11char_traitsIcESaIcEEEEEcNS_12regex_traitsIcEEEC1ES9_S9_RKNS_11basic_regexIcSB_EENSt15regex_constants15match_flag_typeE
FNL:38,2780,2780
FNA:38,0,_ZNSt7__cxx1114regex_iteratorIN9__gnu_cxx17__normal_iteratorIPcNS_12basic_stringIcSt11char_traitsIcESaIcEEEEEcNS_12regex_traitsIcEEEaSERKSC_
FNL:39,2782,2782
FNA:39,0,_ZNSt7__cxx1114regex_iteratorIN9__gnu_cxx17__normal_iteratorIPcNS_12basic_stringIcSt11char_traitsIcESaIcEEEEEcNS_12regex_traitsIcEEED1Ev
FNL:40,2802,2803
FNA:40,0,_ZNKSt7__cxx1114regex_iteratorIN9__gnu_cxx17__normal_iteratorIPcNS_12basic_stringIcSt11char_traitsIcESaIcEEEEEcNS_12regex_traitsIcEEEneERKSC_
FNL:41,2817,2818
FNA:41,0,_ZNKSt7__cxx1114regex_iteratorIN9__gnu_cxx17__normal_iteratorIPcNS_12basic_stringIcSt11char_traitsIcESaIcEEEEEcNS_12regex_traitsIcEEEptEv
FNL:42,378,382
FNA:42,0,_ZNSt7__cxx1112regex_traitsIcE5imbueESt6locale
FNL:43,389,390
FNA:43,0,_ZNKSt7__cxx1112regex_traitsIcE6getlocEv
FNL:44,472,473
FNA:44,0,_ZNSt7__cxx1111basic_regexIcNS_12regex_traitsIcEEEC1EPKcNSt15regex_constants18syntax_option_typeE
FNL:45,556,557
FNA:45,0,_ZNSt7__cxx1111basic_regexIcNS_12regex_traitsIcEEED1Ev
FNL:46,757,758
FNA:46,0,_ZNKSt7__cxx1111basic_regexIcNS_12regex_traitsIcEEE5flagsEv
FNL:47,806,812
FNA:47,0,_ZNSt7__cxx1111basic_regexIcNS_12regex_traitsIcEEE10_M_compileEPKcS5_NSt15regex_constants18syntax_option_typeE
FNL:48,937,937
FNA:48,0,_ZNSt7__cxx119sub_matchIN9__gnu_cxx17__normal_iteratorIPcNS_12basic_stringIcSt11char_traitsIcESaIcEEEEEEC1Ev
FNL:49,980,981
FNA:49,0,_ZNKSt7__cxx119sub_matchIN9__gnu_cxx17__normal_iteratorIPcNS_12basic_stringIcSt11char_traitsIcESaIcEEEEEE7compareERKSA_
FNF:50
FNH:0
DA:112,0
DA:114,0
DA:115,0
DA:118,0
DA:120,0
DA:121,0
DA:125,0
DA:127,0
DA:128,0
DA:147,0
DA:148,0
DA:155,0
DA:157,0
DA:158,0
DA:159,0
DA:164,0
DA:165,0
DA:176,0
DA:189,0
DA:190,0
DA:200,0
DA:201,0
DA:213,0
DA:216,0
DA:217,0
DA:242,0
DA:245,0
DA:246,0
DA:247,0
DA:248,0
DA:266,0
DA:275,0
DA:276,0
DA:277,0
DA:278,0
DA:279,0
DA:378,0
DA:380,0
DA:381,0
DA:389,0
DA:390,0
DA:472,0
DA:473,0
DA:556,0
DA:557,0
DA:757,0
DA:758,0
DA:806,0
DA:809,0
DA:810,0
DA:811,0
DA:812,0
DA:937,0
DA:980,0
DA:981,0
DA:1025,0
DA:1027,0
DA:1028,0
DA:1037,0
DA:1039,0
DA:1040,0
DA:1041,0
DA:1043,0
DA:1044,0
DA:1045,0
DA:1046,0
DA:1047,0
DA:1048,0
DA:1060,0
DA:1062,0
DA:1063,0
DA:1064,0
DA:1065,0
DA:1103,0
DA:1104,0
DA:1801,0
DA:1808,0
DA:1809,0
DA:1810,0
DA:1826,0
DA:1837,0
DA:1857,0
DA:1874,0
DA:1875,0
DA:1887,0
DA:1888,0
DA:1949,0
DA:1951,0
DA:1952,0
DA:1953,0
DA:1954,0
DA:1966,0
DA:1968,0
DA:1969,0
DA:1981,0
DA:1983,0
DA:1984,0
DA:2128,0
DA:2129,0
DA:2133,0
DA:2135,0
DA:2136,0
DA:2137,0
DA:2138,0
DA:2141,0
DA:2142,0
DA:2149,0
DA:2150,0
DA:2153,0
DA:2154,0
DA:2157,0
DA:2158,0
DA:2161,0
DA:2162,0
DA:2418,0
DA:2424,0
DA:2425,0
DA:2602,0
DA:2608,0
DA:2610,0
DA:2751,0
DA:2760,0
DA:2763,0
DA:2765,0
DA:2766,0
DA:2767,0
DA:2780,0
DA:2782,0
DA:2802,0
DA:2803,0
DA:2817,0
DA:2818,0
LF:132
LH:0
end_of_record
TN:
SF:/opt/local/include/gcc14/c++/bits/regex.tcc
FNL:0,122,273
FNA:0,0,_ZNKSt7__cxx1112regex_traitsIcE18lookup_collatenameIPKcEENS_12basic_stringIcSt11char_traitsIcESaIcEEET_SA_
FNL:1,278,318
FNA:1,0,_ZNKSt7__cxx1112regex_traitsIcE16lookup_classnameIPKcEENS1_10_RegexMaskET_S6_b
FNL:2,322,332
FNA:2,0,_ZNKSt7__cxx1112regex_traitsIcE7isctypeEcNS1_10_RegexMaskE
FNL:3,336,347
FNA:3,0,_ZNKSt7__cxx1112regex_traitsIcE5valueEci
FNL:4,352,457
FNA:4,0,_ZNKSt7__cxx1113match_resultsIN9__gnu_cxx17__normal_iteratorIPcNS_12basic_stringIcSt11char_traitsIcESaIcEEEEESaINS_9sub_matchIS9_EEEE6formatISt20back_insert_iteratorIS8_EEET_SH_PKcSJ_NSt15regex_constants15match_flag_typeE
FNL:5,364,364
FNA:5,0,_ZZNKSt7__cxx1113match_resultsIN9__gnu_cxx17__normal_iteratorIPcNS_12basic_stringIcSt11char_traitsIcESaIcEEEEESaINS_9sub_matchIS9_EEEE6formatISt20back_insert_iteratorIS8_EEET_SH_PKcSJ_NSt15regex_constants15match_flag_typeEENKUlmE_clEm
FNL:6,410,410
FNA:6,0,_ZZNKSt7__cxx1113match_resultsIN9__gnu_cxx17__normal_iteratorIPcNS_12basic_stringIcSt11char_traitsIcESaIcEEEEESaINS_9sub_matchIS9_EEEE6formatISt20back_insert_iteratorIS8_EEET_SH_PKcSJ_NSt15regex_constants15match_flag_typeEENKUlcE_clEc
FNL:7,462,492
FNA:7,0,_ZSt15__regex_replaceISt20back_insert_iteratorINSt7__cxx1112basic_stringIcSt11char_traitsIcESaIcEEEEN9__gnu_cxx17__normal_iteratorIPcS6_EENS1_12regex_traitsIcEEcET_SE_T0_SF_RKNS1_11basic_regexIT2_T1_EEPKSH_mNSt15regex_constants15match_flag_typeE
FNL:8,48,115
FNA:8,0,_ZNSt8__detail17__regex_algo_implIN9__gnu_cxx17__normal_iteratorIPcNSt7__cxx1112basic_stringIcSt11char_traitsIcESaIcEEEEESaINS4_9sub_matchISA_EEEcNS4_12regex_traitsIcEEEEbT_SG_RNS4_13match_resultsISG_T0_EERKNS4_11basic_regexIT1_T2_EENSt15regex_constants15match_flag_typeENS_20_RegexExecutorPolicyEb
FNL:9,498,508
FNA:9,0,_ZNKSt7__cxx1114regex_iteratorIN9__gnu_cxx17__normal_iteratorIPcNS_12basic_stringIcSt11char_traitsIcESaIcEEEEEcNS_12regex_traitsIcEEEeqERKSC_
FNL:10,514,567
FNA:10,0,_ZNSt7__cxx1114regex_iteratorIN9__gnu_cxx17__normal_iteratorIPcNS_12basic_stringIcSt11char_traitsIcESaIcEEEEEcNS_12regex_traitsIcEEEppEv
FNF:11
FNH:0
DA:48,0
DA:56,0
DA:57,0
DA:59,0
DA:60,0
DA:61,0
DA:64,0
DA:65,0
DA:66,0
DA:69,0
DA:70,0
DA:71,0
DA:73,0
DA:74,0
DA:78,0
DA:79,0
DA:80,0
DA:82,0
DA:83,0
DA:84,0
DA:86,0
DA:87,0
DA:88,0
DA:89,0
DA:90,0
DA:91,0
DA:93,0
DA:94,0
DA:95,0
DA:96,0
DA:97,0
DA:98,0
DA:102,0
DA:103,0
DA:104,0
DA:105,0
DA:106,0
DA:107,0
DA:112,0
DA:114,0
DA:122,0
DA:126,0
DA:260,0
DA:261,0
DA:262,0
DA:264,0
DA:265,0
DA:266,0
DA:267,0
DA:272,0
DA:273,0
DA:278,0
DA:282,0
DA:304,0
DA:305,0
DA:306,0
DA:308,0
DA:309,0
DA:311,0
DA:312,0
DA:313,0
DA:314,0
DA:315,0
DA:317,0
DA:318,0
DA:322,0
DA:326,0
DA:328,0
DA:330,0
DA:331,0
DA:336,0
DA:339,0
DA:341,0
DA:342,0
DA:343,0
DA:344,0
DA:345,0
DA:346,0
DA:347,0
DA:352,0
DA:358,0
DA:359,0
DA:362,0
DA:364,0
DA:366,0
DA:367,0
DA:368,0
DA:371,0
DA:373,0
DA:374,0
DA:376,0
DA:378,0
DA:379,0
DA:380,0
DA:382,0
DA:383,0
DA:385,0
DA:387,0
DA:388,0
DA:390,0
DA:392,0
DA:393,0
DA:395,0
DA:397,0
DA:398,0
DA:402,0
DA:404,0
DA:405,0
DA:406,0
DA:408,0
DA:410,0
DA:412,0
DA:414,0
DA:415,0
DA:417,0
DA:420,0
DA:421,0
DA:422,0
DA:423,0
DA:424,0
DA:425,0
DA:426,0
DA:428,0
DA:429,0
DA:430,0
DA:432,0
DA:434,0
DA:435,0
DA:436,0
DA:438,0
DA:440,0
DA:441,0
DA:442,0
DA:444,0
DA:445,0
DA:447,0
DA:448,0
DA:451,0
DA:452,0
DA:454,0
DA:456,0
DA:457,0
DA:462,0
DA:468,0
DA:469,0
DA:470,0
DA:472,0
DA:473,0
DA:477,0
DA:478,0
DA:480,0
DA:481,0
DA:483,0
DA:484,0
DA:485,0
DA:486,0
DA:488,0
DA:489,0
DA:491,0
DA:492,0
DA:498,0
DA:501,0
DA:502,0
DA:503,0
DA:504,0
DA:505,0
DA:506,0
DA:507,0
DA:514,0
DA:523,0
DA:525,0
DA:526,0
DA:527,0
DA:529,0
DA:531,0
DA:532,0
DA:536,0
DA:541,0
DA:542,0
DA:543,0
DA:544,0
DA:546,0
DA:547,0
DA:550,0
DA:553,0
DA:554,0
DA:556,0
DA:557,0
DA:558,0
DA:559,0
DA:561,0
DA:564,0
DA:566,0
LF:193
LH:0
end_of_record
TN:
SF:/opt/local/include/gcc14/c++/bits/regex_automaton.h
FNL:0,104,109
FNA:0,0,_ZNKSt8__detail11_State_base10_M_has_altEv
FNL:1,133,137
FNA:1,0,_ZNSt8__detail6_StateIcEC1ENS_7_OpcodeE
FNL:2,139,144
FNA:2,0,_ZNSt8__detail6_StateIcEC1ERKS1_
FNL:3,146,151
FNA:3,0,_ZNSt8__detail6_StateIcEC1EOS1_
FNL:4,156,160
FNA:4,0,_ZNSt8__detail6_StateIcED1Ev
FNL:5,165,166
FNA:5,0,_ZNKSt8__detail6_StateIcE9_M_opcodeEv
FNL:6,169,170
FNA:6,0,_ZNKSt8__detail6_StateIcE10_M_matchesEc
FNL:7,173,174
FNA:7,0,_ZNSt8__detail6_StateIcE14_M_get_matcherEv
FNL:8,177,181
FNA:8,0,_ZNKSt8__detail6_StateIcE14_M_get_matcherEv
FNL:9,189,192
FNA:9,0,_ZNSt8__detail9_NFA_baseC2ENSt15regex_constants18syntax_option_typeE
FNL:10,197,197
FNA:10,0,_ZNSt8__detail9_NFA_baseD2Ev
FNL:11,201,202
FNA:11,0,_ZNKSt8__detail9_NFA_base10_M_optionsEv
FNL:12,205,206
FNA:12,0,_ZNKSt8__detail9_NFA_base8_M_startEv
FNL:13,209,210
FNA:13,0,_ZNKSt8__detail9_NFA_base12_M_sub_countEv
FNL:14,227,229
FNA:14,0,_ZNSt8__detail4_NFAINSt7__cxx1112regex_traitsIcEEEC1ERKSt6localeNSt15regex_constants18syntax_option_typeE
FNL:15,236,240
FNA:15,0,_ZNSt8__detail4_NFAINSt7__cxx1112regex_traitsIcEEE16_M_insert_acceptEv
FNL:16,243,252
FNA:16,0,_ZNSt8__detail4_NFAINSt7__cxx1112regex_traitsIcEEE13_M_insert_altEllb
FNL:17,255,264
FNA:17,0,_ZNSt8__detail4_NFAINSt7__cxx1112regex_traitsIcEEE16_M_insert_repeatEllb
FNL:18,267,272
FNA:18,0,_ZNSt8__detail4_NFAINSt7__cxx1112regex_traitsIcEEE17_M_insert_matcherESt8functionIFbcEE
FNL:19,275,282
FNA:19,0,_ZNSt8__detail4_NFAINSt7__cxx1112regex_traitsIcEEE23_M_insert_subexpr_beginEv
FNL:20,285,291
FNA:20,0,_ZNSt8__detail4_NFAINSt7__cxx1112regex_traitsIcEEE21_M_insert_subexpr_endEv
FNL:21,297,298
FNA:21,0,_ZNSt8__detail4_NFAINSt7__cxx1112regex_traitsIcEEE20_M_insert_line_beginEv
FNL:22,301,302
FNA:22,0,_ZNSt8__detail4_NFAINSt7__cxx1112regex_traitsIcEEE18_M_insert_line_endEv
FNL:23,305,310
FNA:23,0,_ZNSt8__detail4_NFAINSt7__cxx1112regex_traitsIcEEE20_M_insert_word_boundEb
FNL:24,313,319
FNA:24,0,_ZNSt8__detail4_NFAINSt7__cxx1112regex_traitsIcEEE19_M_insert_lookaheadElb
FNL:25,322,323
FNA:25,0,_ZNSt8__detail4_NFAINSt7__cxx1112regex_traitsIcEEE15_M_insert_dummyEv
FNL:26,326,336
FNA:26,0,_ZNSt8__detail4_NFAINSt7__cxx1112regex_traitsIcEEE15_M_insert_stateENS_6_StateIcEE
FNL:27,360,362
FNA:27,0,_ZNSt8__detail9_StateSeqINSt7__cxx1112regex_traitsIcEEEC1ERNS_4_NFAIS3_EEl
FNL:28,364,366
FNA:28,0,_ZNSt8__detail9_StateSeqINSt7__cxx1112regex_traitsIcEEEC1ERNS_4_NFAIS3_EEll
FNL:29,370,374
FNA:29,0,_ZNSt8__detail9_StateSeqINSt7__cxx1112regex_traitsIcEEE9_M_appendEl
FNL:30,378,382
FNA:30,0,_ZNSt8__detail9_StateSeqINSt7__cxx1112regex_traitsIcEEE9_M_appendERKS4_
FNL:31,98,100
FNA:31,0,_ZNSt8__detail11_State_baseC2ENS_7_OpcodeE
FNF:32
FNH:0
DA:98,0
DA:99,0
DA:100,0
DA:104,0
DA:106,0
DA:107,0
DA:108,0
DA:133,0
DA:135,0
DA:136,0
DA:137,0
DA:139,0
DA:141,0
DA:142,0
DA:143,0
DA:144,0
DA:146,0
DA:148,0
DA:149,0
DA:150,0
DA:151,0
DA:156,0
DA:158,0
DA:159,0
DA:160,0
DA:165,0
DA:166,0
DA:169,0
DA:170,0
DA:173,0
DA:174,0
DA:177,0
DA:180,0
DA:189,0
DA:190,0
DA:191,0
DA:192,0
DA:197,0
DA:201,0
DA:202,0
DA:205,0
DA:206,0
DA:209,0
DA:210,0
DA:227,0
DA:228,0
DA:229,0
DA:236,0
DA:238,0
DA:239,0
DA:243,0
DA:246,0
DA:249,0
DA:250,0
DA:251,0
DA:252,0
DA:255,0
DA:257,0
DA:260,0
DA:261,0
DA:262,0
DA:263,0
DA:264,0
DA:267,0
DA:269,0
DA:270,0
DA:271,0
DA:272,0
DA:275,0
DA:277,0
DA:278,0
DA:279,0
DA:280,0
DA:281,0
DA:282,0
DA:285,0
DA:287,0
DA:288,0
DA:289,0
DA:290,0
DA:291,0
DA:297,0
DA:298,0
DA:301,0
DA:302,0
DA:305,0
DA:307,0
DA:308,0
DA:309,0
DA:310,0
DA:313,0
DA:315,0
DA:316,0
DA:317,0
DA:318,0
DA:319,0
DA:322,0
DA:323,0
DA:326,0
DA:328,0
DA:329,0
DA:330,0
DA:335,0
DA:360,0
DA:361,0
DA:362,0
DA:364,0
DA:365,0
DA:366,0
DA:370,0
DA:372,0
DA:373,0
DA:374,0
DA:378,0
DA:380,0
DA:381,0
DA:382,0
LF:117
LH:0
end_of_record
TN:
SF:/opt/local/include/gcc14/c++/bits/regex_automaton.tcc
FNL:0,149,174
FNA:0,0,_ZNSt8__detail4_NFAINSt7__cxx1112regex_traitsIcEEE17_M_insert_backrefEm
FNL:1,178,190
FNA:1,0,_ZNSt8__detail4_NFAINSt7__cxx1112regex_traitsIcEEE18_M_eliminate_dummyEv
FNL:2,195,228
FNA:2,0,_ZNSt8__detail9_StateSeqINSt7__cxx1112regex_traitsIcEEE8_M_cloneEv
FNF:3
FNH:0
DA:149,0
DA:151,0
DA:152,0
DA:161,0
DA:162,0
DA:165,0
DA:166,0
DA:167,0
DA:170,0
DA:171,0
DA:172,0
DA:173,0
DA:174,0
DA:178,0
DA:180,0
DA:182,0
DA:184,0
DA:185,0
DA:186,0
DA:188,0
DA:190,0
DA:195,0
DA:197,0
DA:198,0
DA:199,0
DA:200,0
DA:202,0
DA:203,0
DA:204,0
DA:206,0
DA:207,0
DA:208,0
DA:209,0
DA:210,0
DA:211,0
DA:212,0
DA:213,0
DA:214,0
DA:215,0
DA:216,0
DA:218,0
DA:220,0
DA:221,0
DA:222,0
DA:223,0
DA:224,0
DA:225,0
DA:227,0
DA:228,0
LF:49
LH:0
end_of_record
TN:
SF:/opt/local/include/gcc14/c++/bits/regex_compiler.h
FNL:0,131,131
FNA:0,0,_ZNSt8__detail9_CompilerINSt7__cxx1112regex_traitsIcEEE13_BracketState3setEc
FNL:1,134,134
FNA:1,0,_ZNKSt8__detail9_CompilerINSt7__cxx1112regex_traitsIcEEE13_BracketState3getEv
FNL:2,137,137
FNA:2,0,_ZNSt8__detail9_CompilerINSt7__cxx1112regex_traitsIcEEE13_BracketState5resetENS5_5_TypeE
FNL:3,144,144
FNA:3,0,_ZNKSt8__detail9_CompilerINSt7__cxx1112regex_traitsIcEEE13_BracketState10_M_is_charEv
FNL:4,149,149
FNA:4,0,_ZNKSt8__detail9_CompilerINSt7__cxx1112regex_traitsIcEEE13_BracketState11_M_is_classEv
FNL:5,171,176
FNA:5,0,_ZNSt8__detail9_CompilerINSt7__cxx1112regex_traitsIcEEE6_M_popEv
FNL:6,179,196
FNA:6,0,_ZNSt8__detail9_CompilerINSt7__cxx1112regex_traitsIcEEE11_S_validateENSt15regex_constants18syntax_option_typeE
FNL:7,217,219
FNA:7,0,_ZNSt8__detail20_RegexTranslatorBaseINSt7__cxx1112regex_traitsIcEELb0ELb1EEC2ERKS3_
FNA:7,0,_ZNSt8__detail20_RegexTranslatorBaseINSt7__cxx1112regex_traitsIcEELb1ELb0EEC2ERKS3_
FNA:7,0,_ZNSt8__detail20_RegexTranslatorBaseINSt7__cxx1112regex_traitsIcEELb1ELb1EEC2ERKS3_
FNL:8,222,230
FNA:8,0,_ZNKSt8__detail20_RegexTranslatorBaseINSt7__cxx1112regex_traitsIcEELb0ELb1EE12_M_translateEc
FNA:8,0,_ZNKSt8__detail20_RegexTranslatorBaseINSt7__cxx1112regex_traitsIcEELb1ELb0EE12_M_translateEc
FNA:8,0,_ZNKSt8__detail20_RegexTranslatorBaseINSt7__cxx1112regex_traitsIcEELb1ELb1EE12_M_translateEc
FNL:9,233,237
FNA:9,0,_ZNKSt8__detail20_RegexTranslatorBaseINSt7__cxx1112regex_traitsIcEELb0ELb1EE12_M_transformEc
FNA:9,0,_ZNKSt8__detail20_RegexTranslatorBaseINSt7__cxx1112regex_traitsIcEELb1ELb1EE12_M_transformEc
FNL:10,243,245
FNA:10,0,_ZNKSt8__detail20_RegexTranslatorBaseINSt7__cxx1112regex_traitsIcEELb0ELb1EE14_M_match_rangeERKNS1_12basic_stringIcSt11char_traitsIcESaIcEEESB_SB_
FNL:11,248,256
FNA:11,0,_ZNKSt8__detail20_RegexTranslatorBaseINSt7__cxx1112regex_traitsIcEELb1ELb0EE17_M_in_range_icaseEccc
FNA:11,0,_ZNKSt8__detail20_RegexTranslatorBaseINSt7__cxx1112regex_traitsIcEELb1ELb1EE17_M_in_range_icaseEccc
FNL:12,282,283
FNA:12,0,_ZNKSt8__detail16_RegexTranslatorINSt7__cxx1112regex_traitsIcEELb1ELb0EE12_M_transformEc
FNL:13,286,292
FNA:13,0,_ZNKSt8__detail16_RegexTranslatorINSt7__cxx1112regex_traitsIcEELb1ELb0EE14_M_match_rangeEccc
FNL:14,308,315
FNA:14,0,_ZNKSt8__detail16_RegexTranslatorINSt7__cxx1112regex_traitsIcEELb1ELb1EE14_M_match_rangeERKNS1_12basic_stringIcSt11char_traitsIcESaIcEEESB_SB_
FNL:15,326,327
FNA:15,0,_ZNSt8__detail16_RegexTranslatorINSt7__cxx1112regex_traitsIcEELb0ELb0EEC1ERKS3_
FNL:16,330,331
FNA:16,0,_ZNKSt8__detail16_RegexTranslatorINSt7__cxx1112regex_traitsIcEELb0ELb0EE12_M_translateEc
FNL:17,334,335
FNA:17,0,_ZNKSt8__detail16_RegexTranslatorINSt7__cxx1112regex_traitsIcEELb0ELb0EE12_M_transformEc
FNL:18,338,339
FNA:18,0,_ZNKSt8__detail16_RegexTranslatorINSt7__cxx1112regex_traitsIcEELb0ELb0EE14_M_match_rangeEccc
FNL:19,352,354
FNA:19,0,_ZNSt8__detail11_AnyMatcherINSt7__cxx1112regex_traitsIcEELb0ELb0ELb0EEC1ERKS3_
FNA:19,0,_ZNSt8__detail11_AnyMatcherINSt7__cxx1112regex_traitsIcEELb0ELb0ELb1EEC1ERKS3_
FNA:19,0,_ZNSt8__detail11_AnyMatcherINSt7__cxx1112regex_traitsIcEELb0ELb1ELb0EEC1ERKS3_
FNA:19,0,_ZNSt8__detail11_AnyMatcherINSt7__cxx1112regex_traitsIcEELb0ELb1ELb1EEC1ERKS3_
FNL:20,357,361
FNA:20,0,_ZNKSt8__detail11_AnyMatcherINSt7__cxx1112regex_traitsIcEELb0ELb0ELb0EEclEc
FNA:20,0,_ZNKSt8__detail11_AnyMatcherINSt7__cxx1112regex_traitsIcEELb0ELb0ELb1EEclEc
FNA:20,0,_ZNKSt8__detail11_AnyMatcherINSt7__cxx1112regex_traitsIcEELb0ELb1ELb0EEclEc
FNA:20,0,_ZNKSt8__detail11_AnyMatcherINSt7__cxx1112regex_traitsIcEELb0ELb1ELb1EEclEc
FNL:21,373,375
FNA:21,0,_ZNSt8__detail11_AnyMatcherINSt7__cxx1112regex_traitsIcEELb1ELb0ELb0EEC1ERKS3_
FNA:21,0,_ZNSt8__detail11_AnyMatcherINSt7__cxx1112regex_traitsIcEELb1ELb0ELb1EEC1ERKS3_
FNA:21,0,_ZNSt8__detail11_AnyMatcherINSt7__cxx1112regex_traitsIcEELb1ELb1ELb0EEC1ERKS3_
FNA:21,0,_ZNSt8__detail11_AnyMatcherINSt7__cxx1112regex_traitsIcEELb1ELb1ELb1EEC1ERKS3_
FNL:22,378,379
FNA:22,0,_ZNKSt8__detail11_AnyMatcherINSt7__cxx1112regex_traitsIcEELb1ELb0ELb0EEclEc
FNA:22,0,_ZNKSt8__detail11_AnyMatcherINSt7__cxx1112regex_traitsIcEELb1ELb0ELb1EEclEc
FNA:22,0,_ZNKSt8__detail11_AnyMatcherINSt7__cxx1112regex_traitsIcEELb1ELb1ELb0EEclEc
FNA:22,0,_ZNKSt8__detail11_AnyMatcherINSt7__cxx1112regex_traitsIcEELb1ELb1ELb1EEclEc
FNL:23,382,388
FNA:23,0,_ZNKSt8__detail11_AnyMatcherINSt7__cxx1112regex_traitsIcEELb1ELb0ELb0EE8_M_applyEcSt17integral_constantIbLb1EE
FNA:23,0,_ZNKSt8__detail11_AnyMatcherINSt7__cxx1112regex_traitsIcEELb1ELb0ELb1EE8_M_applyEcSt17integral_constantIbLb1EE
FNA:23,0,_ZNKSt8__detail11_AnyMatcherINSt7__cxx1112regex_traitsIcEELb1ELb1ELb0EE8_M_applyEcSt17integral_constantIbLb1EE
FNA:23,0,_ZNKSt8__detail11_AnyMatcherINSt7__cxx1112regex_traitsIcEELb1ELb1ELb1EE8_M_applyEcSt17integral_constantIbLb1EE
FNL:24,410,412
FNA:24,0,_ZNSt8__detail12_CharMatcherINSt7__cxx1112regex_traitsIcEELb0ELb0EEC1EcRKS3_
FNA:24,0,_ZNSt8__detail12_CharMatcherINSt7__cxx1112regex_traitsIcEELb0ELb1EEC1EcRKS3_
FNA:24,0,_ZNSt8__detail12_CharMatcherINSt7__cxx1112regex_traitsIcEELb1ELb0EEC1EcRKS3_
FNA:24,0,_ZNSt8__detail12_CharMatcherINSt7__cxx1112regex_traitsIcEELb1ELb1EEC1EcRKS3_
FNL:25,415,416
FNA:25,0,_ZNKSt8__detail12_CharMatcherINSt7__cxx1112regex_traitsIcEELb0ELb0EEclEc
FNA:25,0,_ZNKSt8__detail12_CharMatcherINSt7__cxx1112regex_traitsIcEELb0ELb1EEclEc
FNA:25,0,_ZNKSt8__detail12_CharMatcherINSt7__cxx1112regex_traitsIcEELb1ELb0EEclEc
FNA:25,0,_ZNKSt8__detail12_CharMatcherINSt7__cxx1112regex_traitsIcEELb1ELb1EEclEc
FNL:26,434,438
FNA:26,0,_ZNSt8__detail15_BracketMatcherINSt7__cxx1112regex_traitsIcEELb0ELb0EEC1EbRKS3_
FNA:26,0,_ZNSt8__detail15_BracketMatcherINSt7__cxx1112regex_traitsIcEELb0ELb1EEC1EbRKS3_
FNA:26,0,_ZNSt8__detail15_BracketMatcherINSt7__cxx1112regex_traitsIcEELb1ELb0EEC1EbRKS3_
FNA:26,0,_ZNSt8__detail15_BracketMatcherINSt7__cxx1112regex_traitsIcEELb1ELb1EEC1EbRKS3_
FNL:27,441,445
FNA:27,0,_ZNKSt8__detail15_BracketMatcherINSt7__cxx1112regex_traitsIcEELb0ELb0EEclEc
FNA:27,0,_ZNKSt8__detail15_BracketMatcherINSt7__cxx1112regex_traitsIcEELb0ELb1EEclEc
FNA:27,0,_ZNKSt8__detail15_BracketMatcherINSt7__cxx1112regex_traitsIcEELb1ELb0EEclEc
FNA:27,0,_ZNKSt8__detail15_BracketMatcherINSt7__cxx1112regex_traitsIcEELb1ELb1EEclEc
FNL:28,448,452
FNA:28,0,_ZNSt8__detail15_BracketMatcherINSt7__cxx1112regex_traitsIcEELb0ELb0EE11_M_add_charEc
FNA:28,0,_ZNSt8__detail15_BracketMatcherINSt7__cxx1112regex_traitsIcEELb0ELb1EE11_M_add_charEc
FNA:28,0,_ZNSt8__detail15_BracketMatcherINSt7__cxx1112regex_traitsIcEELb1ELb0EE11_M_add_charEc
FNA:28,0,_ZNSt8__detail15_BracketMatcherINSt7__cxx1112regex_traitsIcEELb1ELb1EE11_M_add_charEc
FNL:29,455,465
FNA:29,0,_ZNSt8__detail15_BracketMatcherINSt7__cxx1112regex_traitsIcEELb0ELb0EE22_M_add_collate_elementERKNS1_12basic_stringIcSt11char_traitsIcESaIcEEE
FNA:29,0,_ZNSt8__detail15_BracketMatcherINSt7__cxx1112regex_traitsIcEELb0ELb1EE22_M_add_collate_elementERKNS1_12basic_stringIcSt11char_traitsIcESaIcEEE
FNA:29,0,_ZNSt8__detail15_BracketMatcherINSt7__cxx1112regex_traitsIcEELb1ELb0EE22_M_add_collate_elementERKNS1_12basic_stringIcSt11char_traitsIcESaIcEEE
FNA:29,0,_ZNSt8__detail15_BracketMatcherINSt7__cxx1112regex_traitsIcEELb1ELb1EE22_M_add_collate_elementERKNS1_12basic_stringIcSt11char_traitsIcESaIcEEE
FNL:30,468,479
FNA:30,0,_ZNSt8__detail15_BracketMatcherINSt7__cxx1112regex_traitsIcEELb0ELb0EE24_M_add_equivalence_classERKNS1_12basic_stringIcSt11char_traitsIcESaIcEEE
FNA:30,0,_ZNSt8__detail15_BracketMatcherINSt7__cxx1112regex_traitsIcEELb0ELb1EE24_M_add_equivalence_classERKNS1_12basic_stringIcSt11char_traitsIcESaIcEEE
FNA:30,0,_ZNSt8__detail15_BracketMatcherINSt7__cxx1112regex_traitsIcEELb1ELb0EE24_M_add_equivalence_classERKNS1_12basic_stringIcSt11char_traitsIcESaIcEEE
FNA:30,0,_ZNSt8__detail15_BracketMatcherINSt7__cxx1112regex_traitsIcEELb1ELb1EE24_M_add_equivalence_classERKNS1_12basic_stringIcSt11char_traitsIcESaIcEEE
FNL:31,483,496
FNA:31,0,_ZNSt8__detail15_BracketMatcherINSt7__cxx1112regex_traitsIcEELb0ELb0EE22_M_add_character_classERKNS1_12basic_stringIcSt11char_traitsIcESaIcEEEb
FNA:31,0,_ZNSt8__detail15_BracketMatcherINSt7__cxx1112regex_traitsIcEELb0ELb1EE22_M_add_character_classERKNS1_12basic_stringIcSt11char_traitsIcESaIcEEEb
FNA:31,0,_ZNSt8__detail15_BracketMatcherINSt7__cxx1112regex_traitsIcEELb1ELb0EE22_M_add_character_classERKNS1_12basic_stringIcSt11char_traitsIcESaIcEEEb
FNA:31,0,_ZNSt8__detail15_BracketMatcherINSt7__cxx1112regex_traitsIcEELb1ELb1EE22_M_add_character_classERKNS1_12basic_stringIcSt11char_traitsIcESaIcEEEb
FNL:32,499,507
FNA:32,0,_ZNSt8__detail15_BracketMatcherINSt7__cxx1112regex_traitsIcEELb0ELb0EE13_M_make_rangeEcc
FNA:32,0,_ZNSt8__detail15_BracketMatcherINSt7__cxx1112regex_traitsIcEELb0ELb1EE13_M_make_rangeEcc
FNA:32,0,_ZNSt8__detail15_BracketMatcherINSt7__cxx1112regex_traitsIcEELb1ELb0EE13_M_make_rangeEcc
FNA:32,0,_ZNSt8__detail15_BracketMatcherINSt7__cxx1112regex_traitsIcEELb1ELb1EE13_M_make_rangeEcc
FNL:33,510,517
FNA:33,0,_ZNSt8__detail15_BracketMatcherINSt7__cxx1112regex_traitsIcEELb0ELb0EE8_M_readyEv
FNA:33,0,_ZNSt8__detail15_BracketMatcherINSt7__cxx1112regex_traitsIcEELb0ELb1EE8_M_readyEv
FNA:33,0,_ZNSt8__detail15_BracketMatcherINSt7__cxx1112regex_traitsIcEELb1ELb0EE8_M_readyEv
FNA:33,0,_ZNSt8__detail15_BracketMatcherINSt7__cxx1112regex_traitsIcEELb1ELb1EE8_M_readyEv
FNL:34,537,538
FNA:34,0,_ZNKSt8__detail15_BracketMatcherINSt7__cxx1112regex_traitsIcEELb0ELb0EE8_M_applyEcSt17integral_constantIbLb1EE
FNA:34,0,_ZNKSt8__detail15_BracketMatcherINSt7__cxx1112regex_traitsIcEELb0ELb1EE8_M_applyEcSt17integral_constantIbLb1EE
FNA:34,0,_ZNKSt8__detail15_BracketMatcherINSt7__cxx1112regex_traitsIcEELb1ELb0EE8_M_applyEcSt17integral_constantIbLb1EE
FNA:34,0,_ZNKSt8__detail15_BracketMatcherINSt7__cxx1112regex_traitsIcEELb1ELb1EE8_M_applyEcSt17integral_constantIbLb1EE
FNL:35,541,545
FNA:35,0,_ZNSt8__detail15_BracketMatcherINSt7__cxx1112regex_traitsIcEELb0ELb0EE13_M_make_cacheESt17integral_constantIbLb1EE
FNA:35,0,_ZNSt8__detail15_BracketMatcherINSt7__cxx1112regex_traitsIcEELb0ELb1EE13_M_make_cacheESt17integral_constantIbLb1EE
FNA:35,0,_ZNSt8__detail15_BracketMatcherINSt7__cxx1112regex_traitsIcEELb1ELb0EE13_M_make_cacheESt17integral_constantIbLb1EE
FNA:35,0,_ZNSt8__detail15_BracketMatcherINSt7__cxx1112regex_traitsIcEELb1ELb1EE13_M_make_cacheESt17integral_constantIbLb1EE
FNL:36,68,69
FNA:36,0,_ZNSt8__detail9_CompilerINSt7__cxx1112regex_traitsIcEEE10_M_get_nfaEv
FNF:37
FNH:0
DA:68,0
DA:69,0
DA:131,0
DA:134,0
DA:137,0
DA:144,0
DA:149,0
DA:171,0
DA:173,0
DA:174,0
DA:175,0
DA:179,0
DA:182,0
DA:184,0
DA:190,0
DA:191,0
DA:192,0
DA:193,0
DA:194,0
DA:217,0
DA:218,0
DA:219,0
DA:222,0
DA:225,0
DA:227,0
DA:233,0
DA:235,0
DA:236,0
DA:237,0
DA:243,0
DA:245,0
DA:248,0
DA:251,0
DA:252,0
DA:253,0
DA:254,0
DA:255,0
DA:282,0
DA:283,0
DA:286,0
DA:291,0
DA:308,0
DA:311,0
DA:312,0
DA:313,0
DA:314,0
DA:326,0
DA:327,0
DA:330,0
DA:331,0
DA:334,0
DA:335,0
DA:338,0
DA:339,0
DA:352,0
DA:353,0
DA:354,0
DA:357,0
DA:359,0
DA:360,0
DA:373,0
DA:374,0
DA:375,0
DA:378,0
DA:379,0
DA:382,0
DA:384,0
DA:385,0
DA:386,0
DA:387,0
DA:410,0
DA:411,0
DA:412,0
DA:415,0
DA:416,0
DA:434,0
DA:436,0
DA:437,0
DA:438,0
DA:441,0
DA:444,0
DA:448,0
DA:450,0
DA:452,0
DA:455,0
DA:457,0
DA:458,0
DA:459,0
DA:460,0
DA:462,0
DA:464,0
DA:465,0
DA:468,0
DA:470,0
DA:471,0
DA:472,0
DA:473,0
DA:475,0
DA:476,0
DA:477,0
DA:479,0
DA:483,0
DA:485,0
DA:486,0
DA:488,0
DA:489,0
DA:491,0
DA:492,0
DA:494,0
DA:496,0
DA:499,0
DA:501,0
DA:502,0
DA:504,0
DA:505,0
DA:507,0
DA:510,0
DA:512,0
DA:513,0
DA:514,0
DA:515,0
DA:517,0
DA:537,0
DA:538,0
DA:541,0
DA:543,0
DA:544,0
DA:545,0
LF:128
LH:0
end_of_record
TN:
SF:/opt/local/include/gcc14/c++/bits/regex_compiler.tcc
FNL:0,112,124
FNA:0,0,_ZNSt8__detail9_CompilerINSt7__cxx1112regex_traitsIcEEE14_M_alternativeEv
FNL:1,128,140
FNA:1,0,_ZNSt8__detail9_CompilerINSt7__cxx1112regex_traitsIcEEE7_M_termEv
FNL:2,144,171
FNA:2,0,_ZNSt8__detail9_CompilerINSt7__cxx1112regex_traitsIcEEE12_M_assertionEv
FNL:3,175,282
FNA:3,0,_ZNSt8__detail9_CompilerINSt7__cxx1112regex_traitsIcEEE13_M_quantifierEv
FNL:4,179,179
FNA:4,0,_ZZNSt8__detail9_CompilerINSt7__cxx1112regex_traitsIcEEE13_M_quantifierEvENKUlvE_clEv
FNL:5,300,339
FNA:5,0,_ZNSt8__detail9_CompilerINSt7__cxx1112regex_traitsIcEEE7_M_atomEv
FNL:6,343,352
FNA:6,0,_ZNSt8__detail9_CompilerINSt7__cxx1112regex_traitsIcEEE21_M_bracket_expressionEv
FNL:7,358,365
FNA:7,0,_ZNSt8__detail9_CompilerINSt7__cxx1112regex_traitsIcEEE26_M_insert_any_matcher_ecmaILb0ELb0EEEvv
FNA:7,0,_ZNSt8__detail9_CompilerINSt7__cxx1112regex_traitsIcEEE26_M_insert_any_matcher_ecmaILb0ELb1EEEvv
FNA:7,0,_ZNSt8__detail9_CompilerINSt7__cxx1112regex_traitsIcEEE26_M_insert_any_matcher_ecmaILb1ELb0EEEvv
FNA:7,0,_ZNSt8__detail9_CompilerINSt7__cxx1112regex_traitsIcEEE26_M_insert_any_matcher_ecmaILb1ELb1EEEvv
FNL:8,370,377
FNA:8,0,_ZNSt8__detail9_CompilerINSt7__cxx1112regex_traitsIcEEE27_M_insert_any_matcher_posixILb0ELb0EEEvv
FNA:8,0,_ZNSt8__detail9_CompilerINSt7__cxx1112regex_traitsIcEEE27_M_insert_any_matcher_posixILb0ELb1EEEvv
FNA:8,0,_ZNSt8__detail9_CompilerINSt7__cxx1112regex_traitsIcEEE27_M_insert_any_matcher_posixILb1ELb0EEEvv
FNA:8,0,_ZNSt8__detail9_CompilerINSt7__cxx1112regex_traitsIcEEE27_M_insert_any_matcher_posixILb1ELb1EEEvv
FNL:9,382,389
FNA:9,0,_ZNSt8__detail9_CompilerINSt7__cxx1112regex_traitsIcEEE22_M_insert_char_matcherILb0ELb0EEEvv
FNA:9,0,_ZNSt8__detail9_CompilerINSt7__cxx1112regex_traitsIcEEE22_M_insert_char_matcherILb0ELb1EEEvv
FNA:9,0,_ZNSt8__detail9_CompilerINSt7__cxx1112regex_traitsIcEEE22_M_insert_char_matcherILb1ELb0EEEvv
FNA:9,0,_ZNSt8__detail9_CompilerINSt7__cxx1112regex_traitsIcEEE22_M_insert_char_matcherILb1ELb1EEEvv
FNL:10,394,404
FNA:10,0,_ZNSt8__detail9_CompilerINSt7__cxx1112regex_traitsIcEEE33_M_insert_character_class_matcherILb0ELb0EEEvv
FNA:10,0,_ZNSt8__detail9_CompilerINSt7__cxx1112regex_traitsIcEEE33_M_insert_character_class_matcherILb0ELb1EEEvv
FNA:10,0,_ZNSt8__detail9_CompilerINSt7__cxx1112regex_traitsIcEEE33_M_insert_character_class_matcherILb1ELb0EEEvv
FNA:10,0,_ZNSt8__detail9_CompilerINSt7__cxx1112regex_traitsIcEEE33_M_insert_character_class_matcherILb1ELb1EEEvv
FNL:11,409,427
FNA:11,0,_ZNSt8__detail9_CompilerINSt7__cxx1112regex_traitsIcEEE25_M_insert_bracket_matcherILb0ELb0EEEvb
FNA:11,0,_ZNSt8__detail9_CompilerINSt7__cxx1112regex_traitsIcEEE25_M_insert_bracket_matcherILb0ELb1EEEvb
FNA:11,0,_ZNSt8__detail9_CompilerINSt7__cxx1112regex_traitsIcEEE25_M_insert_bracket_matcherILb1ELb0EEEvb
FNA:11,0,_ZNSt8__detail9_CompilerINSt7__cxx1112regex_traitsIcEEE25_M_insert_bracket_matcherILb1ELb1EEEvb
FNL:12,432,544
FNA:12,0,_ZNSt8__detail9_CompilerINSt7__cxx1112regex_traitsIcEEE18_M_expression_termILb0ELb0EEEbRNS4_13_BracketStateERNS_15_BracketMatcherIS3_XT_EXT0_EEE
FNA:12,0,_ZNSt8__detail9_CompilerINSt7__cxx1112regex_traitsIcEEE18_M_expression_termILb0ELb1EEEbRNS4_13_BracketStateERNS_15_BracketMatcherIS3_XT_EXT0_EEE
FNA:12,0,_ZNSt8__detail9_CompilerINSt7__cxx1112regex_traitsIcEEE18_M_expression_termILb1ELb0EEEbRNS4_13_BracketStateERNS_15_BracketMatcherIS3_XT_EXT0_EEE
FNA:12,0,_ZNSt8__detail9_CompilerINSt7__cxx1112regex_traitsIcEEE18_M_expression_termILb1ELb1EEEbRNS4_13_BracketStateERNS_15_BracketMatcherIS3_XT_EXT0_EEE
FNL:13,440,440
FNA:13,0,_ZZNSt8__detail9_CompilerINSt7__cxx1112regex_traitsIcEEE18_M_expression_termILb0ELb0EEEbRNS4_13_BracketStateERNS_15_BracketMatcherIS3_XT_EXT0_EEEENKUlcE_clEc
FNA:13,0,_ZZNSt8__detail9_CompilerINSt7__cxx1112regex_traitsIcEEE18_M_expression_termILb0ELb1EEEbRNS4_13_BracketStateERNS_15_BracketMatcherIS3_XT_EXT0_EEEENKUlcE_clEc
FNA:13,0,_ZZNSt8__detail9_CompilerINSt7__cxx1112regex_traitsIcEEE18_M_expression_termILb1ELb0EEEbRNS4_13_BracketStateERNS_15_BracketMatcherIS3_XT_EXT0_EEEENKUlcE_clEc
FNA:13,0,_ZZNSt8__detail9_CompilerINSt7__cxx1112regex_traitsIcEEE18_M_expression_termILb1ELb1EEEbRNS4_13_BracketStateERNS_15_BracketMatcherIS3_XT_EXT0_EEEENKUlcE_clEc
FNL:14,447,447
FNA:14,0,_ZZNSt8__detail9_CompilerINSt7__cxx1112regex_traitsIcEEE18_M_expression_termILb0ELb0EEEbRNS4_13_BracketStateERNS_15_BracketMatcherIS3_XT_EXT0_EEEENKUlvE_clEv
FNA:14,0,_ZZNSt8__detail9_CompilerINSt7__cxx1112regex_traitsIcEEE18_M_expression_termILb0ELb1EEEbRNS4_13_BracketStateERNS_15_BracketMatcherIS3_XT_EXT0_EEEENKUlvE_clEv
FNA:14,0,_ZZNSt8__detail9_CompilerINSt7__cxx1112regex_traitsIcEEE18_M_expression_termILb1ELb0EEEbRNS4_13_BracketStateERNS_15_BracketMatcherIS3_XT_EXT0_EEEENKUlvE_clEv
FNA:14,0,_ZZNSt8__detail9_CompilerINSt7__cxx1112regex_traitsIcEEE18_M_expression_termILb1ELb1EEEbRNS4_13_BracketStateERNS_15_BracketMatcherIS3_XT_EXT0_EEEENKUlvE_clEv
FNL:15,548,565
FNA:15,0,_ZNSt8__detail9_CompilerINSt7__cxx1112regex_traitsIcEEE11_M_try_charEv
FNL:16,569,579
FNA:16,0,_ZNSt8__detail9_CompilerINSt7__cxx1112regex_traitsIcEEE14_M_match_tokenENS_12_ScannerBase7_TokenTE
FNL:17,583,593
FNA:17,0,_ZNSt8__detail9_CompilerINSt7__cxx1112regex_traitsIcEEE16_M_cur_int_valueEi
FNL:18,597,620
FNA:18,0,_ZNKSt8__detail15_BracketMatcherINSt7__cxx1112regex_traitsIcEELb0ELb0EE8_M_applyEcSt17integral_constantIbLb0EE
FNA:18,0,_ZNKSt8__detail15_BracketMatcherINSt7__cxx1112regex_traitsIcEELb0ELb1EE8_M_applyEcSt17integral_constantIbLb0EE
FNA:18,0,_ZNKSt8__detail15_BracketMatcherINSt7__cxx1112regex_traitsIcEELb1ELb0EE8_M_applyEcSt17integral_constantIbLb0EE
FNA:18,0,_ZNKSt8__detail15_BracketMatcherINSt7__cxx1112regex_traitsIcEELb1ELb1EE8_M_applyEcSt17integral_constantIbLb0EE
FNL:19,600,600
FNA:19,0,_ZZNKSt8__detail15_BracketMatcherINSt7__cxx1112regex_traitsIcEELb0ELb0EE8_M_applyEcSt17integral_constantIbLb0EEENKUlvE_clEv
FNA:19,0,_ZZNKSt8__detail15_BracketMatcherINSt7__cxx1112regex_traitsIcEELb0ELb1EE8_M_applyEcSt17integral_constantIbLb0EEENKUlvE_clEv
FNA:19,0,_ZZNKSt8__detail15_BracketMatcherINSt7__cxx1112regex_traitsIcEELb1ELb0EE8_M_applyEcSt17integral_constantIbLb0EEENKUlvE_clEv
FNA:19,0,_ZZNKSt8__detail15_BracketMatcherINSt7__cxx1112regex_traitsIcEELb1ELb1EE8_M_applyEcSt17integral_constantIbLb0EEENKUlvE_clEv
FNL:20,65,84
FNA:20,0,_ZNSt8__detail9_CompilerINSt7__cxx1112regex_traitsIcEEEC1EPKcS6_RKSt6localeNSt15regex_constants18syntax_option_typeE
FNL:21,88,108
FNA:21,0,_ZNSt8__detail9_CompilerINSt7__cxx1112regex_traitsIcEEE14_M_disjunctionEv
FNF:22
FNH:0
DA:65,0
DA:68,0
DA:69,0
DA:70,0
DA:71,0
DA:72,0
DA:74,0
DA:75,0
DA:76,0
DA:77,0
DA:78,0
DA:79,0
DA:80,0
DA:81,0
DA:82,0
DA:83,0
DA:84,0
DA:88,0
DA:91,0
DA:92,0
DA:94,0
DA:95,0
DA:96,0
DA:97,0
DA:98,0
DA:99,0
DA:103,0
DA:104,0
DA:108,0
DA:112,0
DA:115,0
DA:117,0
DA:118,0
DA:119,0
DA:120,0
DA:123,0
DA:124,0
DA:128,0
DA:131,0
DA:132,0
DA:133,0
DA:135,0
DA:137,0
DA:139,0
DA:144,0
DA:147,0
DA:148,0
DA:149,0
DA:150,0
DA:151,0
DA:153,0
DA:154,0
DA:155,0
DA:157,0
DA:158,0
DA:159,0
DA:160,0
DA:161,0
DA:162,0
DA:163,0
DA:164,0
DA:165,0
DA:166,0
DA:169,0
DA:170,0
DA:175,0
DA:178,0
DA:179,0
DA:181,0
DA:182,0
DA:183,0
DA:185,0
DA:187,0
DA:188,0
DA:189,0
DA:190,0
DA:192,0
DA:193,0
DA:195,0
DA:197,0
DA:198,0
DA:199,0
DA:201,0
DA:203,0
DA:205,0
DA:206,0
DA:207,0
DA:208,0
DA:209,0
DA:211,0
DA:212,0
DA:213,0
DA:215,0
DA:217,0
DA:218,0
DA:219,0
DA:220,0
DA:221,0
DA:222,0
DA:223,0
DA:224,0
DA:225,0
DA:228,0
DA:230,0
DA:231,0
DA:233,0
DA:235,0
DA:236,0
DA:238,0
DA:240,0
DA:241,0
DA:243,0
DA:245,0
DA:246,0
DA:247,0
DA:249,0
DA:250,0
DA:254,0
DA:255,0
DA:256,0
DA:260,0
DA:261,0
DA:263,0
DA:264,0
DA:266,0
DA:267,0
DA:269,0
DA:270,0
DA:272,0
DA:273,0
DA:274,0
DA:276,0
DA:277,0
DA:280,0
DA:281,0
DA:300,0
DA:303,0
DA:305,0
DA:306,0
DA:308,0
DA:310,0
DA:311,0
DA:312,0
DA:313,0
DA:314,0
DA:315,0
DA:316,0
DA:317,0
DA:319,0
DA:320,0
DA:321,0
DA:322,0
DA:323,0
DA:324,0
DA:326,0
DA:328,0
DA:329,0
DA:330,0
DA:331,0
DA:332,0
DA:333,0
DA:334,0
DA:336,0
DA:337,0
DA:338,0
DA:343,0
DA:347,0
DA:348,0
DA:349,0
DA:350,0
DA:351,0
DA:358,0
DA:361,0
DA:362,0
DA:363,0
DA:365,0
DA:370,0
DA:373,0
DA:374,0
DA:375,0
DA:377,0
DA:382,0
DA:385,0
DA:386,0
DA:387,0
DA:388,0
DA:389,0
DA:394,0
DA:397,0
DA:398,0
DA:399,0
DA:400,0
DA:401,0
DA:402,0
DA:403,0
DA:404,0
DA:409,0
DA:412,0
DA:413,0
DA:414,0
DA:415,0
DA:416,0
DA:418,0
DA:419,0
DA:421,0
DA:422,0
DA:423,0
DA:424,0
DA:425,0
DA:426,0
DA:427,0
DA:432,0
DA:436,0
DA:437,0
DA:440,0
DA:442,0
DA:443,0
DA:444,0
DA:447,0
DA:449,0
DA:450,0
DA:453,0
DA:456,0
DA:458,0
DA:459,0
DA:460,0
DA:462,0
DA:463,0
DA:464,0
DA:466,0
DA:467,0
DA:469,0
DA:471,0
DA:472,0
DA:474,0
DA:475,0
DA:486,0
DA:488,0
DA:491,0
DA:492,0
DA:494,0
DA:497,0
DA:501,0
DA:503,0
DA:506,0
DA:507,0
DA:509,0
DA:512,0
DA:513,0
DA:516,0
DA:520,0
DA:525,0
DA:528,0
DA:532,0
DA:534,0
DA:535,0
DA:536,0
DA:537,0
DA:540,0
DA:543,0
DA:548,0
DA:551,0
DA:552,0
DA:554,0
DA:555,0
DA:557,0
DA:559,0
DA:560,0
DA:562,0
DA:563,0
DA:564,0
DA:569,0
DA:572,0
DA:574,0
DA:575,0
DA:576,0
DA:578,0
DA:583,0
DA:586,0
DA:587,0
DA:588,0
DA:589,0
DA:590,0
DA:592,0
DA:597,0
DA:600,0
DA:602,0
DA:603,0
DA:604,0
DA:605,0
DA:606,0
DA:607,0
DA:608,0
DA:609,0
DA:610,0
DA:611,0
DA:612,0
DA:613,0
DA:614,0
DA:615,0
DA:616,0
DA:617,0
DA:618,0
DA:619,0
LF:304
LH:0
end_of_record
TN:
SF:/opt/local/include/gcc14/c++/bits/regex_constants.h
FNL:0,191,195
FNA:0,0,_ZNSt15regex_constantsanENS_18syntax_option_typeES0_
FNL:1,199,203
FNA:1,0,_ZNSt15regex_constantsorENS_18syntax_option_typeES0_
FNL:2,376,380
FNA:2,0,_ZNSt15regex_constantsanENS_15match_flag_typeES0_
FNL:3,384,388
FNA:3,0,_ZNSt15regex_constantsorENS_15match_flag_typeES0_
FNL:4,400,401
FNA:4,0,_ZNSt15regex_constantscoENS_15match_flag_typeE
FNL:5,405,406
FNA:5,0,_ZNSt15regex_constantsaNERNS_15match_flag_typeES0_
FNL:6,410,411
FNA:6,0,_ZNSt15regex_constantsoRERNS_15match_flag_typeES0_
FNF:7
FNH:0
DA:191,0
DA:194,0
DA:199,0
DA:202,0
DA:376,0
DA:379,0
DA:384,0
DA:387,0
DA:400,0
DA:401,0
DA:405,0
DA:406,0
DA:410,0
DA:411,0
LF:14
LH:0
end_of_record
TN:
SF:/opt/local/include/gcc14/c++/bits/regex_error.h
FNL:0,165,167
FNA:0,0,_ZNSt11regex_errorC1ENSt15regex_constants10error_typeEPKc
FNL:1,171,173
FNA:1,0,_ZSt19__throw_regex_errorNSt15regex_constants10error_typeEPKc
FNF:2
FNH:0
DA:165,0
DA:166,0
DA:167,0
DA:171,0
DA:173,0
LF:5
LH:0
end_of_record
TN:
SF:/opt/local/include/gcc14/c++/bits/regex_executor.h
FNL:0,149,150
FNA:0,0,_ZNSt8__detail9_ExecutorIN9__gnu_cxx17__normal_iteratorIPcNSt7__cxx1112basic_stringIcSt11char_traitsIcESaIcEEEEESaINS4_9sub_matchISA_EEENS4_12regex_traitsIcEELb0EE7_M_mainENSG_11_Match_modeE
FNA:0,0,_ZNSt8__detail9_ExecutorIN9__gnu_cxx17__normal_iteratorIPcNSt7__cxx1112basic_stringIcSt11char_traitsIcESaIcEEEEESaINS4_9sub_matchISA_EEENS4_12regex_traitsIcEELb1EE7_M_mainENSG_11_Match_modeE
FNL:1,159,164
FNA:1,0,_ZNKSt8__detail9_ExecutorIN9__gnu_cxx17__normal_iteratorIPcNSt7__cxx1112basic_stringIcSt11char_traitsIcESaIcEEEEESaINS4_9sub_matchISA_EEENS4_12regex_traitsIcEELb0EE10_M_is_wordEc
FNA:1,0,_ZNKSt8__detail9_ExecutorIN9__gnu_cxx17__normal_iteratorIPcNSt7__cxx1112basic_stringIcSt11char_traitsIcESaIcEEEEESaINS4_9sub_matchISA_EEENS4_12regex_traitsIcEELb1EE10_M_is_wordEc
FNL:2,167,191
FNA:2,0,_ZNKSt8__detail9_ExecutorIN9__gnu_cxx17__normal_iteratorIPcNSt7__cxx1112basic_stringIcSt11char_traitsIcESaIcEEEEESaINS4_9sub_matchISA_EEENS4_12regex_traitsIcEELb0EE11_M_at_beginEv
FNA:2,0,_ZNKSt8__detail9_ExecutorIN9__gnu_cxx17__normal_iteratorIPcNSt7__cxx1112basic_stringIcSt11char_traitsIcESaIcEEEEESaINS4_9sub_matchISA_EEENS4_12regex_traitsIcEELb1EE11_M_at_beginEv
FNL:3,194,202
FNA:3,0,_ZNKSt8__detail9_ExecutorIN9__gnu_cxx17__normal_iteratorIPcNSt7__cxx1112basic_stringIcSt11char_traitsIcESaIcEEEEESaINS4_9sub_matchISA_EEENS4_12regex_traitsIcEELb0EE9_M_at_endEv
FNA:3,0,_ZNKSt8__detail9_ExecutorIN9__gnu_cxx17__normal_iteratorIPcNSt7__cxx1112basic_stringIcSt11char_traitsIcESaIcEEEEESaINS4_9sub_matchISA_EEENS4_12regex_traitsIcEELb1EE9_M_at_endEv
FNL:4,211,225
FNA:4,0,_ZNKSt8__detail9_ExecutorIN9__gnu_cxx17__normal_iteratorIPcNSt7__cxx1112basic_stringIcSt11char_traitsIcESaIcEEEEESaINS4_9sub_matchISA_EEENS4_12regex_traitsIcEELb0EE21_M_is_line_terminatorEc
FNA:4,0,_ZNKSt8__detail9_ExecutorIN9__gnu_cxx17__normal_iteratorIPcNSt7__cxx1112basic_stringIcSt11char_traitsIcESaIcEEEEESaINS4_9sub_matchISA_EEENS4_12regex_traitsIcEELb1EE21_M_is_line_terminatorEc
FNL:5,228,233
FNA:5,0,_ZNKSt8__detail9_ExecutorIN9__gnu_cxx17__normal_iteratorIPcNSt7__cxx1112basic_stringIcSt11char_traitsIcESaIcEEEEESaINS4_9sub_matchISA_EEENS4_12regex_traitsIcEELb0EE18_M_match_multilineEv
FNA:5,0,_ZNKSt8__detail9_ExecutorIN9__gnu_cxx17__normal_iteratorIPcNSt7__cxx1112basic_stringIcSt11char_traitsIcESaIcEEEEESaINS4_9sub_matchISA_EEENS4_12regex_traitsIcEELb1EE18_M_match_multilineEv
FNL:6,243,245
FNA:6,0,_ZNSt8__detail9_ExecutorIN9__gnu_cxx17__normal_iteratorIPcNSt7__cxx1112basic_stringIcSt11char_traitsIcESaIcEEEEESaINS4_9sub_matchISA_EEENS4_12regex_traitsIcEELb0EE11_State_infoISt17integral_constantIbLb0EESt6vectorISC_SD_EEC1Elm
FNL:7,247,247
FNA:7,0,_ZNSt8__detail9_ExecutorIN9__gnu_cxx17__normal_iteratorIPcNSt7__cxx1112basic_stringIcSt11char_traitsIcESaIcEEEEESaINS4_9sub_matchISA_EEENS4_12regex_traitsIcEELb0EE11_State_infoISt17integral_constantIbLb0EESt6vectorISC_SD_EED1Ev
FNL:8,252,258
FNA:8,0,_ZNSt8__detail9_ExecutorIN9__gnu_cxx17__normal_iteratorIPcNSt7__cxx1112basic_stringIcSt11char_traitsIcESaIcEEEEESaINS4_9sub_matchISA_EEENS4_12regex_traitsIcEELb0EE11_State_infoISt17integral_constantIbLb0EESt6vectorISC_SD_EE10_M_visitedEl
FNL:9,260,261
FNA:9,0,_ZNSt8__detail9_ExecutorIN9__gnu_cxx17__normal_iteratorIPcNSt7__cxx1112basic_stringIcSt11char_traitsIcESaIcEEEEESaINS4_9sub_matchISA_EEENS4_12regex_traitsIcEELb0EE11_State_infoISt17integral_constantIbLb0EESt6vectorISC_SD_EE8_M_queueElRKSL_
FNL:10,278,279
FNA:10,0,_ZNSt8__detail9_ExecutorIN9__gnu_cxx17__normal_iteratorIPcNSt7__cxx1112basic_stringIcSt11char_traitsIcESaIcEEEEESaINS4_9sub_matchISA_EEENS4_12regex_traitsIcEELb1EE11_State_infoISt17integral_constantIbLb1EESt6vectorISC_SD_EEC1Elm
FNL:11,282,282
FNA:11,0,_ZNKSt8__detail9_ExecutorIN9__gnu_cxx17__normal_iteratorIPcNSt7__cxx1112basic_stringIcSt11char_traitsIcESaIcEEEEESaINS4_9sub_matchISA_EEENS4_12regex_traitsIcEELb1EE11_State_infoISt17integral_constantIbLb1EESt6vectorISC_SD_EE10_M_visitedEl
FNL:12,285,285
FNA:12,0,_ZNSt8__detail9_ExecutorIN9__gnu_cxx17__normal_iteratorIPcNSt7__cxx1112basic_stringIcSt11char_traitsIcESaIcEEEEESaINS4_9sub_matchISA_EEENS4_12regex_traitsIcEELb1EE11_State_infoISt17integral_constantIbLb1EESt6vectorISC_SD_EE14_M_get_sol_posEv
FNL:13,69,87
FNA:13,0,_ZNSt8__detail9_ExecutorIN9__gnu_cxx17__normal_iteratorIPcNSt7__cxx1112basic_stringIcSt11char_traitsIcESaIcEEEEESaINS4_9sub_matchISA_EEENS4_12regex_traitsIcEELb0EEC1ESA_SA_RSt6vectorISC_SD_ERKNS4_11basic_regexIcSF_EENSt15regex_constants15match_flag_typeE
FNA:13,0,_ZNSt8__detail9_ExecutorIN9__gnu_cxx17__normal_iteratorIPcNSt7__cxx1112basic_stringIcSt11char_traitsIcESaIcEEEEESaINS4_9sub_matchISA_EEENS4_12regex_traitsIcEELb1EEC1ESA_SA_RSt6vectorISC_SD_ERKNS4_11basic_regexIcSF_EENSt15regex_constants15match_flag_typeE
FNL:14,91,95
FNA:14,0,_ZNSt8__detail9_ExecutorIN9__gnu_cxx17__normal_iteratorIPcNSt7__cxx1112basic_stringIcSt11char_traitsIcESaIcEEEEESaINS4_9sub_matchISA_EEENS4_12regex_traitsIcEELb0EE8_M_matchEv
FNA:14,0,_ZNSt8__detail9_ExecutorIN9__gnu_cxx17__normal_iteratorIPcNSt7__cxx1112basic_stringIcSt11char_traitsIcESaIcEEEEESaINS4_9sub_matchISA_EEENS4_12regex_traitsIcEELb1EE8_M_matchEv
FNL:15,99,103
FNA:15,0,_ZNSt8__detail9_ExecutorIN9__gnu_cxx17__normal_iteratorIPcNSt7__cxx1112basic_stringIcSt11char_traitsIcESaIcEEEEESaINS4_9sub_matchISA_EEENS4_12regex_traitsIcEELb0EE20_M_search_from_firstEv
FNA:15,0,_ZNSt8__detail9_ExecutorIN9__gnu_cxx17__normal_iteratorIPcNSt7__cxx1112basic_stringIcSt11char_traitsIcESaIcEEEEESaINS4_9sub_matchISA_EEENS4_12regex_traitsIcEELb1EE20_M_search_from_firstEv
FNF:16
FNH:0
DA:69,0
DA:74,0
DA:75,0
DA:76,0
DA:77,0
DA:78,0
DA:79,0
DA:80,0
DA:81,0
DA:82,0
DA:85,0
DA:86,0
DA:87,0
DA:91,0
DA:93,0
DA:94,0
DA:99,0
DA:101,0
DA:102,0
DA:149,0
DA:150,0
DA:159,0
DA:162,0
DA:163,0
DA:167,0
DA:169,0
DA:172,0
DA:173,0
DA:175,0
DA:179,0
DA:180,0
DA:182,0
DA:185,0
DA:187,0
DA:188,0
DA:190,0
DA:194,0
DA:196,0
DA:197,0
DA:198,0
DA:199,0
DA:201,0
DA:211,0
DA:213,0
DA:214,0
DA:215,0
DA:216,0
DA:217,0
DA:218,0
DA:220,0
DA:221,0
DA:224,0
DA:228,0
DA:230,0
DA:232,0
DA:243,0
DA:244,0
DA:245,0
DA:247,0
DA:252,0
DA:254,0
DA:255,0
DA:256,0
DA:257,0
DA:260,0
DA:261,0
DA:278,0
DA:279,0
DA:282,0
DA:285,0
LF:70
LH:0
end_of_record
TN:
SF:/opt/local/include/gcc14/c++/bits/regex_executor.tcc
FNL:0,115,143
FNA:0,0,_ZNSt8__detail9_ExecutorIN9__gnu_cxx17__normal_iteratorIPcNSt7__cxx1112basic_stringIcSt11char_traitsIcESaIcEEEEESaINS4_9sub_matchISA_EEENS4_12regex_traitsIcEELb0EE16_M_main_dispatchENSG_11_Match_modeESt17integral_constantIbLb0EE
FNL:1,148,165
FNA:1,0,_ZNSt8__detail9_ExecutorIN9__gnu_cxx17__normal_iteratorIPcNSt7__cxx1112basic_stringIcSt11char_traitsIcESaIcEEEEESaINS4_9sub_matchISA_EEENS4_12regex_traitsIcEELb0EE12_M_lookaheadEl
FNA:1,0,_ZNSt8__detail9_ExecutorIN9__gnu_cxx17__normal_iteratorIPcNSt7__cxx1112basic_stringIcSt11char_traitsIcESaIcEEEEESaINS4_9sub_matchISA_EEENS4_12regex_traitsIcEELb1EE12_M_lookaheadEl
FNL:2,175,197
FNA:2,0,_ZNSt8__detail9_ExecutorIN9__gnu_cxx17__normal_iteratorIPcNSt7__cxx1112basic_stringIcSt11char_traitsIcESaIcEEEEESaINS4_9sub_matchISA_EEENS4_12regex_traitsIcEELb0EE16_M_rep_once_moreENSG_11_Match_modeEl
FNA:2,0,_ZNSt8__detail9_ExecutorIN9__gnu_cxx17__normal_iteratorIPcNSt7__cxx1112basic_stringIcSt11char_traitsIcESaIcEEEEESaINS4_9sub_matchISA_EEENS4_12regex_traitsIcEELb1EE16_M_rep_once_moreENSG_11_Match_modeEl
FNL:3,205,243
FNA:3,0,_ZNSt8__detail9_ExecutorIN9__gnu_cxx17__normal_iteratorIPcNSt7__cxx1112basic_stringIcSt11char_traitsIcESaIcEEEEESaINS4_9sub_matchISA_EEENS4_12regex_traitsIcEELb0EE16_M_handle_repeatENSG_11_Match_modeEl
FNA:3,0,_ZNSt8__detail9_ExecutorIN9__gnu_cxx17__normal_iteratorIPcNSt7__cxx1112basic_stringIcSt11char_traitsIcESaIcEEEEESaINS4_9sub_matchISA_EEENS4_12regex_traitsIcEELb1EE16_M_handle_repeatENSG_11_Match_modeEl
FNL:4,247,257
FNA:4,0,_ZNSt8__detail9_ExecutorIN9__gnu_cxx17__normal_iteratorIPcNSt7__cxx1112basic_stringIcSt11char_traitsIcESaIcEEEEESaINS4_9sub_matchISA_EEENS4_12regex_traitsIcEELb0EE23_M_handle_subexpr_beginENSG_11_Match_modeEl
FNA:4,0,_ZNSt8__detail9_ExecutorIN9__gnu_cxx17__normal_iteratorIPcNSt7__cxx1112basic_stringIcSt11char_traitsIcESaIcEEEEESaINS4_9sub_matchISA_EEENS4_12regex_traitsIcEELb1EE23_M_handle_subexpr_beginENSG_11_Match_modeEl
FNL:5,261,272
FNA:5,0,_ZNSt8__detail9_ExecutorIN9__gnu_cxx17__normal_iteratorIPcNSt7__cxx1112basic_stringIcSt11char_traitsIcESaIcEEEEESaINS4_9sub_matchISA_EEENS4_12regex_traitsIcEELb0EE21_M_handle_subexpr_endENSG_11_Match_modeEl
FNA:5,0,_ZNSt8__detail9_ExecutorIN9__gnu_cxx17__normal_iteratorIPcNSt7__cxx1112basic_stringIcSt11char_traitsIcESaIcEEEEESaINS4_9sub_matchISA_EEENS4_12regex_traitsIcEELb1EE21_M_handle_subexpr_endENSG_11_Match_modeEl
FNL:6,276,282
FNA:6,0,_ZNSt8__detail9_ExecutorIN9__gnu_cxx17__normal_iteratorIPcNSt7__cxx1112basic_stringIcSt11char_traitsIcESaIcEEEEESaINS4_9sub_matchISA_EEENS4_12regex_traitsIcEELb0EE30_M_handle_line_begin_assertionENSG_11_Match_modeEl
FNA:6,0,_ZNSt8__detail9_ExecutorIN9__gnu_cxx17__normal_iteratorIPcNSt7__cxx1112basic_stringIcSt11char_traitsIcESaIcEEEEESaINS4_9sub_matchISA_EEENS4_12regex_traitsIcEELb1EE30_M_handle_line_begin_assertionENSG_11_Match_modeEl
FNL:7,286,292
FNA:7,0,_ZNSt8__detail9_ExecutorIN9__gnu_cxx17__normal_iteratorIPcNSt7__cxx1112basic_stringIcSt11char_traitsIcESaIcEEEEESaINS4_9sub_matchISA_EEENS4_12regex_traitsIcEELb0EE28_M_handle_line_end_assertionENSG_11_Match_modeEl
FNA:7,0,_ZNSt8__detail9_ExecutorIN9__gnu_cxx17__normal_iteratorIPcNSt7__cxx1112basic_stringIcSt11char_traitsIcESaIcEEEEESaINS4_9sub_matchISA_EEENS4_12regex_traitsIcEELb1EE28_M_handle_line_end_assertionENSG_11_Match_modeEl
FNL:8,296,302
FNA:8,0,_ZNSt8__detail9_ExecutorIN9__gnu_cxx17__normal_iteratorIPcNSt7__cxx1112basic_stringIcSt11char_traitsIcESaIcEEEEESaINS4_9sub_matchISA_EEENS4_12regex_traitsIcEELb0EE23_M_handle_word_boundaryENSG_11_Match_modeEl
FNA:8,0,_ZNSt8__detail9_ExecutorIN9__gnu_cxx17__normal_iteratorIPcNSt7__cxx1112basic_stringIcSt11char_traitsIcESaIcEEEEESaINS4_9sub_matchISA_EEENS4_12regex_traitsIcEELb1EE23_M_handle_word_boundaryENSG_11_Match_modeEl
FNL:9,308,314
FNA:9,0,_ZNSt8__detail9_ExecutorIN9__gnu_cxx17__normal_iteratorIPcNSt7__cxx1112basic_stringIcSt11char_traitsIcESaIcEEEEESaINS4_9sub_matchISA_EEENS4_12regex_traitsIcEELb0EE27_M_handle_subexpr_lookaheadENSG_11_Match_modeEl
FNA:9,0,_ZNSt8__detail9_ExecutorIN9__gnu_cxx17__normal_iteratorIPcNSt7__cxx1112basic_stringIcSt11char_traitsIcESaIcEEEEESaINS4_9sub_matchISA_EEENS4_12regex_traitsIcEELb1EE27_M_handle_subexpr_lookaheadENSG_11_Match_modeEl
FNL:10,318,337
FNA:10,0,_ZNSt8__detail9_ExecutorIN9__gnu_cxx17__normal_iteratorIPcNSt7__cxx1112basic_stringIcSt11char_traitsIcESaIcEEEEESaINS4_9sub_matchISA_EEENS4_12regex_traitsIcEELb0EE15_M_handle_matchENSG_11_Match_modeEl
FNA:10,0,_ZNSt8__detail9_ExecutorIN9__gnu_cxx17__normal_iteratorIPcNSt7__cxx1112basic_stringIcSt11char_traitsIcESaIcEEEEESaINS4_9sub_matchISA_EEENS4_12regex_traitsIcEELb1EE15_M_handle_matchENSG_11_Match_modeEl
FNL:11,361,362
FNA:11,0,_ZNSt8__detail16_Backref_matcherIN9__gnu_cxx17__normal_iteratorIPcNSt7__cxx1112basic_stringIcSt11char_traitsIcESaIcEEEEENS4_12regex_traitsIcEEEC1EbRKSC_
FNL:12,365,381
FNA:12,0,_ZNSt8__detail16_Backref_matcherIN9__gnu_cxx17__normal_iteratorIPcNSt7__cxx1112basic_stringIcSt11char_traitsIcESaIcEEEEENS4_12regex_traitsIcEEE8_M_applyESA_SA_SA_SA_
FNL:13,376,376
FNA:13,0,_ZZNSt8__detail16_Backref_matcherIN9__gnu_cxx17__normal_iteratorIPcNSt7__cxx1112basic_stringIcSt11char_traitsIcESaIcEEEEENS4_12regex_traitsIcEEE8_M_applyESA_SA_SA_SA_ENKUlccE_clEcc
FNL:14,39,54
FNA:14,0,_ZNSt8__detail9_ExecutorIN9__gnu_cxx17__normal_iteratorIPcNSt7__cxx1112basic_stringIcSt11char_traitsIcESaIcEEEEESaINS4_9sub_matchISA_EEENS4_12regex_traitsIcEELb0EE9_M_searchEv
FNA:14,0,_ZNSt8__detail9_ExecutorIN9__gnu_cxx17__normal_iteratorIPcNSt7__cxx1112basic_stringIcSt11char_traitsIcESaIcEEEEESaINS4_9sub_matchISA_EEENS4_12regex_traitsIcEELb1EE9_M_searchEv
FNL:15,393,422
FNA:15,0,_ZNSt8__detail9_ExecutorIN9__gnu_cxx17__normal_iteratorIPcNSt7__cxx1112basic_stringIcSt11char_traitsIcESaIcEEEEESaINS4_9sub_matchISA_EEENS4_12regex_traitsIcEELb0EE17_M_handle_backrefENSG_11_Match_modeEl
FNA:15,0,_ZNSt8__detail9_ExecutorIN9__gnu_cxx17__normal_iteratorIPcNSt7__cxx1112basic_stringIcSt11char_traitsIcESaIcEEEEESaINS4_9sub_matchISA_EEENS4_12regex_traitsIcEELb1EE17_M_handle_backrefENSG_11_Match_modeEl
FNL:16,426,476
FNA:16,0,_ZNSt8__detail9_ExecutorIN9__gnu_cxx17__normal_iteratorIPcNSt7__cxx1112basic_stringIcSt11char_traitsIcESaIcEEEEESaINS4_9sub_matchISA_EEENS4_12regex_traitsIcEELb0EE16_M_handle_acceptENSG_11_Match_modeEl
FNA:16,0,_ZNSt8__detail9_ExecutorIN9__gnu_cxx17__normal_iteratorIPcNSt7__cxx1112basic_stringIcSt11char_traitsIcESaIcEEEEESaINS4_9sub_matchISA_EEENS4_12regex_traitsIcEELb1EE16_M_handle_acceptENSG_11_Match_modeEl
FNL:17,480,503
FNA:17,0,_ZNSt8__detail9_ExecutorIN9__gnu_cxx17__normal_iteratorIPcNSt7__cxx1112basic_stringIcSt11char_traitsIcESaIcEEEEESaINS4_9sub_matchISA_EEENS4_12regex_traitsIcEELb0EE21_M_handle_alternativeENSG_11_Match_modeEl
FNA:17,0,_ZNSt8__detail9_ExecutorIN9__gnu_cxx17__normal_iteratorIPcNSt7__cxx1112basic_stringIcSt11char_traitsIcESaIcEEEEESaINS4_9sub_matchISA_EEENS4_12regex_traitsIcEELb1EE21_M_handle_alternativeENSG_11_Match_modeEl
FNL:18,507,540
FNA:18,0,_ZNSt8__detail9_ExecutorIN9__gnu_cxx17__normal_iteratorIPcNSt7__cxx1112basic_stringIcSt11char_traitsIcESaIcEEEEESaINS4_9sub_matchISA_EEENS4_12regex_traitsIcEELb0EE6_M_dfsENSG_11_Match_modeEl
FNA:18,0,_ZNSt8__detail9_ExecutorIN9__gnu_cxx17__normal_iteratorIPcNSt7__cxx1112basic_stringIcSt11char_traitsIcESaIcEEEEESaINS4_9sub_matchISA_EEENS4_12regex_traitsIcEELb1EE6_M_dfsENSG_11_Match_modeEl
FNL:19,545,565
FNA:19,0,_ZNKSt8__detail9_ExecutorIN9__gnu_cxx17__normal_iteratorIPcNSt7__cxx1112basic_stringIcSt11char_traitsIcESaIcEEEEESaINS4_9sub_matchISA_EEENS4_12regex_traitsIcEELb0EE16_M_word_boundaryEv
FNA:19,0,_ZNKSt8__detail9_ExecutorIN9__gnu_cxx17__normal_iteratorIPcNSt7__cxx1112basic_stringIcSt11char_traitsIcESaIcEEEEESaINS4_9sub_matchISA_EEENS4_12regex_traitsIcEELb1EE16_M_word_boundaryEv
FNL:20,81,89
FNA:20,0,_ZNSt8__detail9_ExecutorIN9__gnu_cxx17__normal_iteratorIPcNSt7__cxx1112basic_stringIcSt11char_traitsIcESaIcEEEEESaINS4_9sub_matchISA_EEENS4_12regex_traitsIcEELb1EE16_M_main_dispatchENSG_11_Match_modeESt17integral_constantIbLb1EE
FNF:21
FNH:0
DA:39,0
DA:42,0
DA:43,0
DA:44,0
DA:45,0
DA:46,0
DA:47,0
DA:49,0
DA:50,0
DA:51,0
DA:53,0
DA:81,0
DA:84,0
DA:85,0
DA:86,0
DA:87,0
DA:88,0
DA:115,0
DA:118,0
DA:119,0
DA:120,0
DA:122,0
DA:123,0
DA:124,0
DA:125,0
DA:126,0
DA:127,0
DA:128,0
DA:130,0
DA:131,0
DA:133,0
DA:134,0
DA:135,0
DA:136,0
DA:137,0
DA:139,0
DA:140,0
DA:141,0
DA:142,0
DA:148,0
DA:154,0
DA:155,0
DA:156,0
DA:157,0
DA:159,0
DA:160,0
DA:161,0
DA:162,0
DA:164,0
DA:165,0
DA:175,0
DA:178,0
DA:179,0
DA:180,0
DA:182,0
DA:183,0
DA:184,0
DA:185,0
DA:186,0
DA:190,0
DA:192,0
DA:193,0
DA:194,0
DA:197,0
DA:205,0
DA:208,0
DA:211,0
DA:213,0
DA:215,0
DA:216,0
DA:223,0
DA:224,0
DA:225,0
DA:232,0
DA:234,0
DA:238,0
DA:239,0
DA:243,0
DA:247,0
DA:250,0
DA:252,0
DA:253,0
DA:254,0
DA:255,0
DA:256,0
DA:257,0
DA:261,0
DA:264,0
DA:266,0
DA:267,0
DA:268,0
DA:269,0
DA:270,0
DA:271,0
DA:272,0
DA:276,0
DA:279,0
DA:280,0
DA:281,0
DA:282,0
DA:286,0
DA:289,0
DA:290,0
DA:291,0
DA:292,0
DA:296,0
DA:299,0
DA:300,0
DA:301,0
DA:302,0
DA:308,0
DA:311,0
DA:312,0
DA:313,0
DA:314,0
DA:318,0
DA:321,0
DA:323,0
DA:324,0
DA:327,0
DA:329,0
DA:330,0
DA:331,0
DA:335,0
DA:336,0
DA:361,0
DA:362,0
DA:365,0
DA:369,0
DA:370,0
DA:371,0
DA:373,0
DA:374,0
DA:376,0
DA:378,0
DA:379,0
DA:380,0
DA:393,0
DA:396,0
DA:398,0
DA:399,0
DA:400,0
DA:401,0
DA:402,0
DA:403,0
DA:404,0
DA:405,0
DA:406,0
DA:407,0
DA:408,0
DA:409,0
DA:412,0
DA:414,0
DA:415,0
DA:416,0
DA:417,0
DA:420,0
DA:426,0
DA:431,0
DA:432,0
DA:433,0
DA:435,0
DA:436,0
DA:437,0
DA:438,0
DA:439,0
DA:441,0
DA:442,0
DA:445,0
DA:453,0
DA:454,0
DA:455,0
DA:456,0
DA:458,0
DA:459,0
DA:466,0
DA:467,0
DA:468,0
DA:469,0
DA:470,0
DA:472,0
DA:473,0
DA:476,0
DA:480,0
DA:483,0
DA:485,0
DA:488,0
DA:490,0
DA:491,0
DA:497,0
DA:498,0
DA:499,0
DA:500,0
DA:501,0
DA:503,0
DA:507,0
DA:510,0
DA:511,0
DA:513,0
DA:515,0
DA:516,0
DA:517,0
DA:518,0
DA:519,0
DA:520,0
DA:521,0
DA:522,0
DA:523,0
DA:524,0
DA:525,0
DA:526,0
DA:527,0
DA:528,0
DA:529,0
DA:530,0
DA:531,0
DA:532,0
DA:533,0
DA:534,0
DA:535,0
DA:536,0
DA:537,0
DA:538,0
DA:545,0
DA:548,0
DA:549,0
DA:550,0
DA:551,0
DA:553,0
DA:554,0
DA:555,0
DA:557,0
DA:558,0
DA:559,0
DA:561,0
DA:562,0
DA:564,0
LF:237
LH:0
end_of_record
TN:
SF:/opt/local/include/gcc14/c++/bits/regex_scanner.h
FNL:0,115,122
FNA:0,0,_ZNSt8__detail12_ScannerBase14_M_find_escapeEc
FNL:1,125,126
FNA:1,0,_ZNKSt8__detail12_ScannerBase10_M_is_ecmaEv
FNL:2,129,130
FNA:2,0,_ZNKSt8__detail12_ScannerBase11_M_is_basicEv
FNL:3,145,146
FNA:3,0,_ZNKSt8__detail12_ScannerBase9_M_is_awkEv
FNL:4,225,226
FNA:4,0,_ZNKSt8__detail8_ScannerIcE12_M_get_tokenEv
FNL:5,229,230
FNA:5,0,_ZNKSt8__detail8_ScannerIcE12_M_get_valueB5cxx11Ev
FNL:6,91,111
FNA:6,0,_ZNSt8__detail12_ScannerBaseC2ENSt15regex_constants18syntax_option_typeE
FNF:7
FNH:0
DA:91,0
DA:92,0
DA:93,0
DA:94,0
DA:95,0
DA:97,0
DA:98,0
DA:99,0
DA:100,0
DA:101,0
DA:102,0
DA:103,0
DA:104,0
DA:105,0
DA:106,0
DA:107,0
DA:108,0
DA:110,0
DA:111,0
DA:115,0
DA:117,0
DA:118,0
DA:119,0
DA:120,0
DA:121,0
DA:125,0
DA:126,0
DA:129,0
DA:130,0
DA:145,0
DA:146,0
DA:225,0
DA:226,0
DA:229,0
DA:230,0
LF:35
LH:0
end_of_record
TN:
SF:/opt/local/include/gcc14/c++/bits/regex_scanner.tcc
FNL:0,207,262
FNA:0,0,_ZNSt8__detail8_ScannerIcE18_M_scan_in_bracketEv
FNL:1,268,305
FNA:1,0,_ZNSt8__detail8_ScannerIcE16_M_scan_in_braceEv
FNL:2,309,385
FNA:2,0,_ZNSt8__detail8_ScannerIcE18_M_eat_escape_ecmaEv
FNL:3,391,427
FNA:3,0,_ZNSt8__detail8_ScannerIcE19_M_eat_escape_posixEv
FNL:4,431,461
FNA:4,0,_ZNSt8__detail8_ScannerIcE17_M_eat_escape_awkEv
FNL:5,468,481
FNA:5,0,_ZNSt8__detail8_ScannerIcE12_M_eat_classEc
FNL:6,56,65
FNA:6,0,_ZNSt8__detail8_ScannerIcEC1EPKcS3_NSt15regex_constants18syntax_option_typeESt6locale
FNL:7,69,88
FNA:7,0,_ZNSt8__detail8_ScannerIcE10_M_advanceEv
FNL:8,95,200
FNA:8,0,_ZNSt8__detail8_ScannerIcE14_M_scan_normalEv
FNF:9
FNH:0
DA:56,0
DA:60,0
DA:61,0
DA:62,0
DA:63,0
DA:64,0
DA:65,0
DA:69,0
DA:72,0
DA:74,0
DA:75,0
DA:78,0
DA:79,0
DA:80,0
DA:81,0
DA:82,0
DA:83,0
DA:86,0
DA:95,0
DA:98,0
DA:100,0
DA:102,0
DA:103,0
DA:104,0
DA:106,0
DA:108,0
DA:109,0
DA:113,0
DA:114,0
DA:115,0
DA:116,0
DA:118,0
DA:119,0
DA:121,0
DA:123,0
DA:125,0
DA:127,0
DA:128,0
DA:130,0
DA:132,0
DA:133,0
DA:135,0
DA:137,0
DA:138,0
DA:139,0
DA:141,0
DA:143,0
DA:144,0
DA:145,0
DA:148,0
DA:152,0
DA:153,0
DA:155,0
DA:157,0
DA:158,0
DA:159,0
DA:161,0
DA:162,0
DA:163,0
DA:165,0
DA:166,0
DA:169,0
DA:171,0
DA:173,0
DA:174,0
DA:176,0
DA:178,0
DA:179,0
DA:180,0
DA:181,0
DA:183,0
DA:185,0
DA:186,0
DA:187,0
DA:188,0
DA:190,0
DA:191,0
DA:193,0
DA:194,0
DA:197,0
DA:198,0
DA:207,0
DA:210,0
DA:211,0
DA:213,0
DA:215,0
DA:216,0
DA:217,0
DA:219,0
DA:220,0
DA:224,0
DA:226,0
DA:227,0
DA:229,0
DA:231,0
DA:232,0
DA:234,0
DA:236,0
DA:237,0
DA:241,0
DA:242,0
DA:248,0
DA:250,0
DA:251,0
DA:254,0
DA:255,0
DA:258,0
DA:259,0
DA:261,0
DA:262,0
DA:268,0
DA:271,0
DA:272,0
DA:274,0
DA:276,0
DA:278,0
DA:279,0
DA:280,0
DA:281,0
DA:282,0
DA:284,0
DA:285,0
DA:287,0
DA:289,0
DA:291,0
DA:292,0
DA:293,0
DA:296,0
DA:298,0
DA:300,0
DA:301,0
DA:304,0
DA:305,0
DA:309,0
DA:312,0
DA:313,0
DA:315,0
DA:316,0
DA:318,0
DA:320,0
DA:321,0
DA:323,0
DA:325,0
DA:326,0
DA:328,0
DA:330,0
DA:331,0
DA:334,0
DA:335,0
DA:336,0
DA:337,0
DA:338,0
DA:339,0
DA:341,0
DA:342,0
DA:344,0
DA:346,0
DA:347,0
DA:350,0
DA:351,0
DA:353,0
DA:355,0
DA:356,0
DA:357,0
DA:359,0
DA:360,0
DA:361,0
DA:367,0
DA:369,0
DA:370,0
DA:372,0
DA:374,0
DA:375,0
DA:376,0
DA:377,0
DA:378,0
DA:382,0
DA:383,0
DA:385,0
DA:391,0
DA:394,0
DA:395,0
DA:397,0
DA:398,0
DA:400,0
DA:402,0
DA:403,0
DA:406,0
DA:408,0
DA:409,0
DA:411,0
DA:413,0
DA:414,0
DA:420,0
DA:426,0
DA:431,0
DA:434,0
DA:435,0
DA:437,0
DA:439,0
DA:440,0
DA:443,0
DA:444,0
DA:445,0
DA:447,0
DA:448,0
DA:450,0
DA:451,0
DA:452,0
DA:453,0
DA:455,0
DA:456,0
DA:457,0
DA:460,0
DA:468,0
DA:471,0
DA:472,0
DA:473,0
DA:474,0
DA:475,0
DA:476,0
DA:478,0
DA:481,0
LF:223
LH:0
end_of_record
TN:
SF:/opt/local/include/gcc14/c++/bits/shared_ptr.h
FNL:0,1003,1009
FNA:0,0,_ZSt11make_sharedINSt8__detail4_NFAINSt7__cxx1112regex_traitsIcEEEEJRKSt6localeRNSt15regex_constants18syntax_option_typeEEESt10shared_ptrINSt9enable_ifIXntsrSt8is_arrayIT_E5valueESF_E4typeEEDpOT0_
FNL:1,201,201
FNA:1,0,_ZNSt10shared_ptrIKNSt8__detail4_NFAINSt7__cxx1112regex_traitsIcEEEEEC1Ev
FNL:2,213,213
FNA:2,0,_ZNSt10shared_ptrI12DifferParserEC1IS0_vEEPT_
FNA:2,0,_ZNSt10shared_ptrI14LocationParserEC1IS0_vEEPT_
FNL:3,367,368
FNA:3,0,_ZNSt10shared_ptrIKNSt8__detail4_NFAINSt7__cxx1112regex_traitsIcEEEEEC1IS5_vEEOS_IT_E
FNL:4,437,441
FNA:4,0,_ZNSt10shared_ptrIKNSt8__detail4_NFAINSt7__cxx1112regex_traitsIcEEEEEaSEOS7_
FNL:5,462,464
FNA:5,0,_ZNSt10shared_ptrINSt8__detail4_NFAINSt7__cxx1112regex_traitsIcEEEEEC1ISaIvEJRKSt6localeRNSt15regex_constants18syntax_option_typeEEEESt20_Sp_alloc_shared_tagIT_EDpOT0_
FNL:6,560,561
FNA:6,0,_ZSteqIKNSt8__detail4_NFAINSt7__cxx1112regex_traitsIcEEEEEbRKSt10shared_ptrIT_EDn
FNF:7
FNH:0
DA:201,0
DA:213,0
DA:367,0
DA:368,0
DA:437,0
DA:439,0
DA:440,0
DA:462,0
DA:463,0
DA:464,0
DA:560,0
DA:561,0
DA:1003,0
DA:1008,0
LF:14
LH:0
end_of_record
TN:
SF:/opt/local/include/gcc14/c++/bits/shared_ptr_base.h
FNL:0,1066,1070
FNA:0,0,_ZNSt14__shared_countILN9__gnu_cxx12_Lock_policyE2EED1Ev
FNL:1,1095,1100
FNA:1,0,_ZNSt14__shared_countILN9__gnu_cxx12_Lock_policyE2EE7_M_swapERS2_
FNL:2,129,130
FNA:2,0,_ZNSt16_Sp_counted_baseILN9__gnu_cxx12_Lock_policyE2EEC2Ev
FNL:3,133,134
FNA:3,0,_ZNSt16_Sp_counted_baseILN9__gnu_cxx12_Lock_policyE2EED2Ev
FNL:4,1348,1352
FNA:4,0,_ZNKSt19__shared_ptr_accessIKNSt8__detail4_NFAINSt7__cxx1112regex_traitsIcEEEELN9__gnu_cxx12_Lock_policyE2ELb0ELb0EEdeEv
FNA:4,0,_ZNKSt19__shared_ptr_accessINSt8__detail4_NFAINSt7__cxx1112regex_traitsIcEEEELN9__gnu_cxx12_Lock_policyE2ELb0ELb0EEdeEv
FNL:5,1355,1359
FNA:5,0,_ZNKSt19__shared_ptr_accessI12DifferParserLN9__gnu_cxx12_Lock_policyE2ELb0ELb0EEptEv
FNA:5,0,_ZNKSt19__shared_ptr_accessI14LocationParserLN9__gnu_cxx12_Lock_policyE2ELb0ELb0EEptEv
FNA:5,0,_ZNKSt19__shared_ptr_accessIKNSt8__detail4_NFAINSt7__cxx1112regex_traitsIcEEEELN9__gnu_cxx12_Lock_policyE2ELb0ELb0EEptEv
FNA:5,0,_ZNKSt19__shared_ptr_accessINSt8__detail4_NFAINSt7__cxx1112regex_traitsIcEEEELN9__gnu_cxx12_Lock_policyE2ELb0ELb0EEptEv
FNL:6,1363,1364
FNA:6,0,_ZNKSt19__shared_ptr_accessI12DifferParserLN9__gnu_cxx12_Lock_policyE2ELb0ELb0EE6_M_getEv
FNA:6,0,_ZNKSt19__shared_ptr_accessI14LocationParserLN9__gnu_cxx12_Lock_policyE2ELb0ELb0EE6_M_getEv
FNA:6,0,_ZNKSt19__shared_ptr_accessIKNSt8__detail4_NFAINSt7__cxx1112regex_traitsIcEEEELN9__gnu_cxx12_Lock_policyE2ELb0ELb0EE6_M_getEv
FNA:6,0,_ZNKSt19__shared_ptr_accessINSt8__detail4_NFAINSt7__cxx1112regex_traitsIcEEEELN9__gnu_cxx12_Lock_policyE2ELb0ELb0EE6_M_getEv
FNL:7,143,144
FNA:7,0,_ZNSt16_Sp_counted_baseILN9__gnu_cxx12_Lock_policyE2EE10_M_destroyEv
FNL:8,1463,1465
FNA:8,0,_ZNSt12__shared_ptrIKNSt8__detail4_NFAINSt7__cxx1112regex_traitsIcEEEELN9__gnu_cxx12_Lock_policyE2EEC2Ev
FNL:9,1469,1475
FNA:9,0,_ZNSt12__shared_ptrI12DifferParserLN9__gnu_cxx12_Lock_policyE2EEC2IS0_vEEPT_
FNA:9,0,_ZNSt12__shared_ptrI14LocationParserLN9__gnu_cxx12_Lock_policyE2EEC2IS0_vEEPT_
FNL:10,1525,1525
FNA:10,0,_ZNSt12__shared_ptrI12DifferParserLN9__gnu_cxx12_Lock_policyE2EED2Ev
FNA:10,0,_ZNSt12__shared_ptrI14LocationParserLN9__gnu_cxx12_Lock_policyE2EED2Ev
FNA:10,0,_ZNSt12__shared_ptrIKNSt8__detail4_NFAINSt7__cxx1112regex_traitsIcEEEELN9__gnu_cxx12_Lock_policyE2EED1Ev
FNA:10,0,_ZNSt12__shared_ptrIKNSt8__detail4_NFAINSt7__cxx1112regex_traitsIcEEEELN9__gnu_cxx12_Lock_policyE2EED2Ev
FNA:10,0,_ZNSt12__shared_ptrINSt8__detail4_NFAINSt7__cxx1112regex_traitsIcEEEELN9__gnu_cxx12_Lock_policyE2EED2Ev
FNL:11,1532,1537
FNA:11,0,_ZNSt12__shared_ptrIKNSt8__detail4_NFAINSt7__cxx1112regex_traitsIcEEEELN9__gnu_cxx12_Lock_policyE2EEC1EOS9_
FNL:12,1540,1545
FNA:12,0,_ZNSt12__shared_ptrIKNSt8__detail4_NFAINSt7__cxx1112regex_traitsIcEEEELN9__gnu_cxx12_Lock_policyE2EEC2IS5_vEEOS_IT_LS8_2EE
FNL:13,1619,1623
FNA:13,0,_ZNSt12__shared_ptrIKNSt8__detail4_NFAINSt7__cxx1112regex_traitsIcEEEELN9__gnu_cxx12_Lock_policyE2EEaSEOS9_
FNL:14,1666,1667
FNA:14,0,_ZNKSt12__shared_ptrI12DifferParserLN9__gnu_cxx12_Lock_policyE2EE3getEv
FNA:14,0,_ZNKSt12__shared_ptrI14LocationParserLN9__gnu_cxx12_Lock_policyE2EE3getEv
FNA:14,0,_ZNKSt12__shared_ptrIKNSt8__detail4_NFAINSt7__cxx1112regex_traitsIcEEEELN9__gnu_cxx12_Lock_policyE2EE3getEv
FNA:14,0,_ZNKSt12__shared_ptrINSt8__detail4_NFAINSt7__cxx1112regex_traitsIcEEEELN9__gnu_cxx12_Lock_policyE2EE3getEv
FNL:15,1670,1671
FNA:15,0,_ZNKSt12__shared_ptrIKNSt8__detail4_NFAINSt7__cxx1112regex_traitsIcEEEELN9__gnu_cxx12_Lock_policyE2EEcvbEv
FNL:16,1685,1689
FNA:16,0,_ZNSt12__shared_ptrIKNSt8__detail4_NFAINSt7__cxx1112regex_traitsIcEEEELN9__gnu_cxx12_Lock_policyE2EE4swapERS9_
FNL:17,1712,1714
FNA:17,0,_ZNSt12__shared_ptrINSt8__detail4_NFAINSt7__cxx1112regex_traitsIcEEEELN9__gnu_cxx12_Lock_policyE2EEC2ISaIvEJRKSt6localeRNSt15regex_constants18syntax_option_typeEEEESt20_Sp_alloc_shared_tagIT_EDpOT0_
FNL:18,172,193
FNA:18,0,_ZNSt16_Sp_counted_baseILN9__gnu_cxx12_Lock_policyE2EE19_M_release_last_useEv
FNL:19,1766,1767
FNA:19,0,_ZNSt12__shared_ptrI12DifferParserLN9__gnu_cxx12_Lock_policyE2EE31_M_enable_shared_from_this_withIS0_S0_EENSt9enable_ifIXntsrNS3_15__has_esft_baseIT0_vEE5valueEvE4typeEPT_
FNA:19,0,_ZNSt12__shared_ptrI14LocationParserLN9__gnu_cxx12_Lock_policyE2EE31_M_enable_shared_from_this_withIS0_S0_EENSt9enable_ifIXntsrNS3_15__has_esft_baseIT0_vEE5valueEvE4typeEPT_
FNA:19,0,_ZNSt12__shared_ptrINSt8__detail4_NFAINSt7__cxx1112regex_traitsIcEEEELN9__gnu_cxx12_Lock_policyE2EE31_M_enable_shared_from_this_withIS5_S5_EENSt9enable_ifIXntsrNS8_15__has_esft_baseIT0_vEE5valueEvE4typeEPT_
FNL:20,198,199
FNA:20,0,_ZNSt16_Sp_counted_baseILN9__gnu_cxx12_Lock_policyE2EE24_M_release_last_use_coldEv
FNL:21,317,363
FNA:21,0,_ZNSt16_Sp_counted_baseILN9__gnu_cxx12_Lock_policyE2EE10_M_releaseEv
FNL:22,423,424
FNA:22,0,_ZNSt15_Sp_counted_ptrIP12DifferParserLN9__gnu_cxx12_Lock_policyE2EEC1ES1_
FNA:22,0,_ZNSt15_Sp_counted_ptrIP14LocationParserLN9__gnu_cxx12_Lock_policyE2EEC1ES1_
FNL:23,427,428
FNA:23,0,_ZNSt15_Sp_counted_ptrIP12DifferParserLN9__gnu_cxx12_Lock_policyE2EE10_M_disposeEv
FNA:23,0,_ZNSt15_Sp_counted_ptrIP14LocationParserLN9__gnu_cxx12_Lock_policyE2EE10_M_disposeEv
FNL:24,431,432
FNA:24,0,_ZNSt15_Sp_counted_ptrIP12DifferParserLN9__gnu_cxx12_Lock_policyE2EE10_M_destroyEv
FNA:24,0,_ZNSt15_Sp_counted_ptrIP14LocationParserLN9__gnu_cxx12_Lock_policyE2EE10_M_destroyEv
FNL:25,435,436
FNA:25,0,_ZNSt15_Sp_counted_ptrIP12DifferParserLN9__gnu_cxx12_Lock_policyE2EE14_M_get_deleterERKSt9type_info
FNA:25,0,_ZNSt15_Sp_counted_ptrIP14LocationParserLN9__gnu_cxx12_Lock_policyE2EE14_M_get_deleterERKSt9type_info
FNL:26,470,470
FNA:26,0,_ZNSt14_Sp_ebo_helperILi0ESaIvELb1EEC2ERKS0_
FNL:27,474,474
FNA:27,0,_ZNSt14_Sp_ebo_helperILi0ESaIvELb1EE6_S_getERS1_
FNL:28,567,571
FNA:28,0,_ZNSt19_Sp_make_shared_tag5_S_tiEv
FNL:29,590,590
FNA:29,0,_ZNSt23_Sp_counted_ptr_inplaceINSt8__detail4_NFAINSt7__cxx1112regex_traitsIcEEEESaIvELN9__gnu_cxx12_Lock_policyE2EE5_ImplC1ES6_
FNL:30,592,592
FNA:30,0,_ZNSt23_Sp_counted_ptr_inplaceINSt8__detail4_NFAINSt7__cxx1112regex_traitsIcEEEESaIvELN9__gnu_cxx12_Lock_policyE2EE5_Impl8_M_allocEv
FNL:31,602,609
FNA:31,0,_ZNSt23_Sp_counted_ptr_inplaceINSt8__detail4_NFAINSt7__cxx1112regex_traitsIcEEEESaIvELN9__gnu_cxx12_Lock_policyE2EEC1IJRKSt6localeRNSt15regex_constants18syntax_option_typeEEEES6_DpOT_
FNL:32,611,611
FNA:32,0,_ZNSt23_Sp_counted_ptr_inplaceINSt8__detail4_NFAINSt7__cxx1112regex_traitsIcEEEESaIvELN9__gnu_cxx12_Lock_policyE2EED0Ev
FNA:32,0,_ZNSt23_Sp_counted_ptr_inplaceINSt8__detail4_NFAINSt7__cxx1112regex_traitsIcEEEESaIvELN9__gnu_cxx12_Lock_policyE2EED1Ev
FNL:33,614,617
FNA:33,0,_ZNSt23_Sp_counted_ptr_inplaceINSt8__detail4_NFAINSt7__cxx1112regex_traitsIcEEEESaIvELN9__gnu_cxx12_Lock_policyE2EE10_M_disposeEv
FNL:34,621,626
FNA:34,0,_ZNSt23_Sp_counted_ptr_inplaceINSt8__detail4_NFAINSt7__cxx1112regex_traitsIcEEEESaIvELN9__gnu_cxx12_Lock_policyE2EE10_M_destroyEv
FNL:35,634,651
FNA:35,0,_ZNSt23_Sp_counted_ptr_inplaceINSt8__detail4_NFAINSt7__cxx1112regex_traitsIcEEEESaIvELN9__gnu_cxx12_Lock_policyE2EE14_M_get_deleterERKSt9type_info
FNL:36,653,653
FNA:36,0,_ZNSt23_Sp_counted_ptr_inplaceINSt8__detail4_NFAINSt7__cxx1112regex_traitsIcEEEESaIvELN9__gnu_cxx12_Lock_policyE2EE6_M_ptrEv
FNL:37,906,907
FNA:37,0,_ZNSt14__shared_countILN9__gnu_cxx12_Lock_policyE2EEC1Ev
FNL:38,911,922
FNA:38,0,_ZNSt14__shared_countILN9__gnu_cxx12_Lock_policyE2EEC1IP12DifferParserEET_
FNA:38,0,_ZNSt14__shared_countILN9__gnu_cxx12_Lock_policyE2EEC1IP14LocationParserEET_
FNL:39,925,927
FNA:39,0,_ZNSt14__shared_countILN9__gnu_cxx12_Lock_policyE2EEC1IP12DifferParserEET_St17integral_constantIbLb0EE
FNA:39,0,_ZNSt14__shared_countILN9__gnu_cxx12_Lock_policyE2EEC1IP14LocationParserEET_St17integral_constantIbLb0EE
FNL:40,962,974
FNA:40,0,_ZNSt14__shared_countILN9__gnu_cxx12_Lock_policyE2EEC1INSt8__detail4_NFAINSt7__cxx1112regex_traitsIcEEEESaIvEJRKSt6localeRNSt15regex_constants18syntax_option_typeEEEERPT_St20_Sp_alloc_shared_tagIT0_EDpOT1_
FNF:41
FNH:0
DA:129,0
DA:130,0
DA:133,0
DA:134,0
DA:143,0
DA:144,0
DA:172,0
DA:175,0
DA:187,0
DA:188,0
DA:191,0
DA:193,0
DA:198,0
DA:199,0
DA:317,0
DA:321,0
DA:324,0
DA:328,0
DA:331,0
DA:332,0
DA:333,0
DA:334,0
DA:337,0
DA:343,0
DA:346,0
DA:347,0
DA:348,0
DA:350,0
DA:351,0
DA:353,0
DA:354,0
DA:423,0
DA:424,0
DA:427,0
DA:428,0
DA:431,0
DA:432,0
DA:435,0
DA:436,0
DA:470,0
DA:474,0
DA:567,0
DA:570,0
DA:590,0
DA:592,0
DA:602,0
DA:603,0
DA:607,0
DA:609,0
DA:611,0
DA:614,0
DA:616,0
DA:617,0
DA:621,0
DA:623,0
DA:624,0
DA:625,0
DA:626,0
DA:634,0
DA:636,0
DA:641,0
DA:642,0
DA:644,0
DA:649,0
DA:650,0
DA:653,0
DA:906,0
DA:907,0
DA:911,0
DA:915,0
DA:917,0
DA:919,0
DA:920,0
DA:922,0
DA:925,0
DA:926,0
DA:927,0
DA:962,0
DA:966,0
DA:967,0
DA:968,0
DA:969,0
DA:971,0
DA:972,0
DA:973,0
DA:974,0
DA:1066,0
DA:1068,0
DA:1069,0
DA:1070,0
DA:1095,0
DA:1097,0
DA:1098,0
DA:1099,0
DA:1100,0
DA:1348,0
DA:1350,0
DA:1351,0
DA:1355,0
DA:1358,0
DA:1363,0
DA:1364,0
DA:1463,0
DA:1464,0
DA:1465,0
DA:1469,0
DA:1470,0
DA:1474,0
DA:1475,0
DA:1525,0
DA:1532,0
DA:1533,0
DA:1535,0
DA:1536,0
DA:1537,0
DA:1540,0
DA:1541,0
DA:1543,0
DA:1544,0
DA:1545,0
DA:1619,0
DA:1621,0
DA:1622,0
DA:1666,0
DA:1667,0
DA:1670,0
DA:1671,0
DA:1685,0
DA:1687,0
DA:1688,0
DA:1689,0
DA:1712,0
DA:1713,0
DA:1714,0
DA:1766,0
DA:1767,0
LF:136
LH:0
end_of_record
TN:
SF:/opt/local/include/gcc14/c++/bits/std_function.h
FNL:0,134,143
FNA:0,0,_ZNSt14_Function_base13_Base_managerINSt8__detail11_AnyMatcherINSt7__cxx1112regex_traitsIcEELb0ELb0ELb0EEEE14_M_get_pointerERKSt9_Any_data
FNA:0,0,_ZNSt14_Function_base13_Base_managerINSt8__detail11_AnyMatcherINSt7__cxx1112regex_traitsIcEELb0ELb0ELb1EEEE14_M_get_pointerERKSt9_Any_data
FNA:0,0,_ZNSt14_Function_base13_Base_managerINSt8__detail11_AnyMatcherINSt7__cxx1112regex_traitsIcEELb0ELb1ELb0EEEE14_M_get_pointerERKSt9_Any_data
FNA:0,0,_ZNSt14_Function_base13_Base_managerINSt8__detail11_AnyMatcherINSt7__cxx1112regex_traitsIcEELb0ELb1ELb1EEEE14_M_get_pointerERKSt9_Any_data
FNA:0,0,_ZNSt14_Function_base13_Base_managerINSt8__detail11_AnyMatcherINSt7__cxx1112regex_traitsIcEELb1ELb0ELb0EEEE14_M_get_pointerERKSt9_Any_data
FNA:0,0,_ZNSt14_Function_base13_Base_managerINSt8__detail11_AnyMatcherINSt7__cxx1112regex_traitsIcEELb1ELb0ELb1EEEE14_M_get_pointerERKSt9_Any_data
FNA:0,0,_ZNSt14_Function_base13_Base_managerINSt8__detail11_AnyMatcherINSt7__cxx1112regex_traitsIcEELb1ELb1ELb0EEEE14_M_get_pointerERKSt9_Any_data
FNA:0,0,_ZNSt14_Function_base13_Base_managerINSt8__detail11_AnyMatcherINSt7__cxx1112regex_traitsIcEELb1ELb1ELb1EEEE14_M_get_pointerERKSt9_Any_data
FNA:0,0,_ZNSt14_Function_base13_Base_managerINSt8__detail12_CharMatcherINSt7__cxx1112regex_traitsIcEELb0ELb0EEEE14_M_get_pointerERKSt9_Any_data
FNA:0,0,_ZNSt14_Function_base13_Base_managerINSt8__detail12_CharMatcherINSt7__cxx1112regex_traitsIcEELb0ELb1EEEE14_M_get_pointerERKSt9_Any_data
FNA:0,0,_ZNSt14_Function_base13_Base_managerINSt8__detail12_CharMatcherINSt7__cxx1112regex_traitsIcEELb1ELb0EEEE14_M_get_pointerERKSt9_Any_data
FNA:0,0,_ZNSt14_Function_base13_Base_managerINSt8__detail12_CharMatcherINSt7__cxx1112regex_traitsIcEELb1ELb1EEEE14_M_get_pointerERKSt9_Any_data
FNA:0,0,_ZNSt14_Function_base13_Base_managerINSt8__detail15_BracketMatcherINSt7__cxx1112regex_traitsIcEELb0ELb0EEEE14_M_get_pointerERKSt9_Any_data
FNA:0,0,_ZNSt14_Function_base13_Base_managerINSt8__detail15_BracketMatcherINSt7__cxx1112regex_traitsIcEELb0ELb1EEEE14_M_get_pointerERKSt9_Any_data
FNA:0,0,_ZNSt14_Function_base13_Base_managerINSt8__detail15_BracketMatcherINSt7__cxx1112regex_traitsIcEELb1ELb0EEEE14_M_get_pointerERKSt9_Any_data
FNA:0,0,_ZNSt14_Function_base13_Base_managerINSt8__detail15_BracketMatcherINSt7__cxx1112regex_traitsIcEELb1ELb1EEEE14_M_get_pointerERKSt9_Any_data
FNL:1,150,153
FNA:1,0,_ZNSt14_Function_base13_Base_managerINSt8__detail11_AnyMatcherINSt7__cxx1112regex_traitsIcEELb0ELb0ELb0EEEE9_M_createIRKS6_EEvRSt9_Any_dataOT_St17integral_constantIbLb1EE
FNA:1,0,_ZNSt14_Function_base13_Base_managerINSt8__detail11_AnyMatcherINSt7__cxx1112regex_traitsIcEELb0ELb0ELb0EEEE9_M_createIS6_EEvRSt9_Any_dataOT_St17integral_constantIbLb1EE
FNA:1,0,_ZNSt14_Function_base13_Base_managerINSt8__detail11_AnyMatcherINSt7__cxx1112regex_traitsIcEELb0ELb0ELb1EEEE9_M_createIRKS6_EEvRSt9_Any_dataOT_St17integral_constantIbLb1EE
FNA:1,0,_ZNSt14_Function_base13_Base_managerINSt8__detail11_AnyMatcherINSt7__cxx1112regex_traitsIcEELb0ELb0ELb1EEEE9_M_createIS6_EEvRSt9_Any_dataOT_St17integral_constantIbLb1EE
FNA:1,0,_ZNSt14_Function_base13_Base_managerINSt8__detail11_AnyMatcherINSt7__cxx1112regex_traitsIcEELb0ELb1ELb0EEEE9_M_createIRKS6_EEvRSt9_Any_dataOT_St17integral_constantIbLb1EE
FNA:1,0,_ZNSt14_Function_base13_Base_managerINSt8__detail11_AnyMatcherINSt7__cxx1112regex_traitsIcEELb0ELb1ELb0EEEE9_M_createIS6_EEvRSt9_Any_dataOT_St17integral_constantIbLb1EE
FNA:1,0,_ZNSt14_Function_base13_Base_managerINSt8__detail11_AnyMatcherINSt7__cxx1112regex_traitsIcEELb0ELb1ELb1EEEE9_M_createIRKS6_EEvRSt9_Any_dataOT_St17integral_constantIbLb1EE
FNA:1,0,_ZNSt14_Function_base13_Base_managerINSt8__detail11_AnyMatcherINSt7__cxx1112regex_traitsIcEELb0ELb1ELb1EEEE9_M_createIS6_EEvRSt9_Any_dataOT_St17integral_constantIbLb1EE
FNA:1,0,_ZNSt14_Function_base13_Base_managerINSt8__detail11_AnyMatcherINSt7__cxx1112regex_traitsIcEELb1ELb0ELb0EEEE9_M_createIRKS6_EEvRSt9_Any_dataOT_St17integral_constantIbLb1EE
FNA:1,0,_ZNSt14_Function_base13_Base_managerINSt8__detail11_AnyMatcherINSt7__cxx1112regex_traitsIcEELb1ELb0ELb0EEEE9_M_createIS6_EEvRSt9_Any_dataOT_St17integral_constantIbLb1EE
FNA:1,0,_ZNSt14_Function_base13_Base_managerINSt8__detail11_AnyMatcherINSt7__cxx1112regex_traitsIcEELb1ELb0ELb1EEEE9_M_createIRKS6_EEvRSt9_Any_dataOT_St17integral_constantIbLb1EE
FNA:1,0,_ZNSt14_Function_base13_Base_managerINSt8__detail11_AnyMatcherINSt7__cxx1112regex_traitsIcEELb1ELb0ELb1EEEE9_M_createIS6_EEvRSt9_Any_dataOT_St17integral_constantIbLb1EE
FNA:1,0,_ZNSt14_Function_base13_Base_managerINSt8__detail11_AnyMatcherINSt7__cxx1112regex_traitsIcEELb1ELb1ELb0EEEE9_M_createIRKS6_EEvRSt9_Any_dataOT_St17integral_constantIbLb1EE
FNA:1,0,_ZNSt14_Function_base13_Base_managerINSt8__detail11_AnyMatcherINSt7__cxx1112regex_traitsIcEELb1ELb1ELb0EEEE9_M_createIS6_EEvRSt9_Any_dataOT_St17integral_constantIbLb1EE
FNA:1,0,_ZNSt14_Function_base13_Base_managerINSt8__detail11_AnyMatcherINSt7__cxx1112regex_traitsIcEELb1ELb1ELb1EEEE9_M_createIRKS6_EEvRSt9_Any_dataOT_St17integral_constantIbLb1EE
FNA:1,0,_ZNSt14_Function_base13_Base_managerINSt8__detail11_AnyMatcherINSt7__cxx1112regex_traitsIcEELb1ELb1ELb1EEEE9_M_createIS6_EEvRSt9_Any_dataOT_St17integral_constantIbLb1EE
FNA:1,0,_ZNSt14_Function_base13_Base_managerINSt8__detail12_CharMatcherINSt7__cxx1112regex_traitsIcEELb0ELb0EEEE9_M_createIRKS6_EEvRSt9_Any_dataOT_St17integral_constantIbLb1EE
FNA:1,0,_ZNSt14_Function_base13_Base_managerINSt8__detail12_CharMatcherINSt7__cxx1112regex_traitsIcEELb0ELb0EEEE9_M_createIS6_EEvRSt9_Any_dataOT_St17integral_constantIbLb1EE
FNA:1,0,_ZNSt14_Function_base13_Base_managerINSt8__detail12_CharMatcherINSt7__cxx1112regex_traitsIcEELb0ELb1EEEE9_M_createIRKS6_EEvRSt9_Any_dataOT_St17integral_constantIbLb1EE
FNA:1,0,_ZNSt14_Function_base13_Base_managerINSt8__detail12_CharMatcherINSt7__cxx1112regex_traitsIcEELb0ELb1EEEE9_M_createIS6_EEvRSt9_Any_dataOT_St17integral_constantIbLb1EE
FNA:1,0,_ZNSt14_Function_base13_Base_managerINSt8__detail12_CharMatcherINSt7__cxx1112regex_traitsIcEELb1ELb0EEEE9_M_createIRKS6_EEvRSt9_Any_dataOT_St17integral_constantIbLb1EE
FNA:1,0,_ZNSt14_Function_base13_Base_managerINSt8__detail12_CharMatcherINSt7__cxx1112regex_traitsIcEELb1ELb0EEEE9_M_createIS6_EEvRSt9_Any_dataOT_St17integral_constantIbLb1EE
FNA:1,0,_ZNSt14_Function_base13_Base_managerINSt8__detail12_CharMatcherINSt7__cxx1112regex_traitsIcEELb1ELb1EEEE9_M_createIRKS6_EEvRSt9_Any_dataOT_St17integral_constantIbLb1EE
FNA:1,0,_ZNSt14_Function_base13_Base_managerINSt8__detail12_CharMatcherINSt7__cxx1112regex_traitsIcEELb1ELb1EEEE9_M_createIS6_EEvRSt9_Any_dataOT_St17integral_constantIbLb1EE
FNL:2,158,162
FNA:2,0,_ZNSt14_Function_base13_Base_managerINSt8__detail15_BracketMatcherINSt7__cxx1112regex_traitsIcEELb0ELb0EEEE9_M_createIRKS6_EEvRSt9_Any_dataOT_St17integral_constantIbLb0EE
FNA:2,0,_ZNSt14_Function_base13_Base_managerINSt8__detail15_BracketMatcherINSt7__cxx1112regex_traitsIcEELb0ELb0EEEE9_M_createIS6_EEvRSt9_Any_dataOT_St17integral_constantIbLb0EE
FNA:2,0,_ZNSt14_Function_base13_Base_managerINSt8__detail15_BracketMatcherINSt7__cxx1112regex_traitsIcEELb0ELb1EEEE9_M_createIRKS6_EEvRSt9_Any_dataOT_St17integral_constantIbLb0EE
FNA:2,0,_ZNSt14_Function_base13_Base_managerINSt8__detail15_BracketMatcherINSt7__cxx1112regex_traitsIcEELb0ELb1EEEE9_M_createIS6_EEvRSt9_Any_dataOT_St17integral_constantIbLb0EE
FNA:2,0,_ZNSt14_Function_base13_Base_managerINSt8__detail15_BracketMatcherINSt7__cxx1112regex_traitsIcEELb1ELb0EEEE9_M_createIRKS6_EEvRSt9_Any_dataOT_St17integral_constantIbLb0EE
FNA:2,0,_ZNSt14_Function_base13_Base_managerINSt8__detail15_BracketMatcherINSt7__cxx1112regex_traitsIcEELb1ELb0EEEE9_M_createIS6_EEvRSt9_Any_dataOT_St17integral_constantIbLb0EE
FNA:2,0,_ZNSt14_Function_base13_Base_managerINSt8__detail15_BracketMatcherINSt7__cxx1112regex_traitsIcEELb1ELb1EEEE9_M_createIRKS6_EEvRSt9_Any_dataOT_St17integral_constantIbLb0EE
FNA:2,0,_ZNSt14_Function_base13_Base_managerINSt8__detail15_BracketMatcherINSt7__cxx1112regex_traitsIcEELb1ELb1EEEE9_M_createIS6_EEvRSt9_Any_dataOT_St17integral_constantIbLb0EE
FNL:3,166,169
FNA:3,0,_ZNSt14_Function_base13_Base_managerINSt8__detail11_AnyMatcherINSt7__cxx1112regex_traitsIcEELb0ELb0ELb0EEEE10_M_destroyERSt9_Any_dataSt17integral_constantIbLb1EE
FNA:3,0,_ZNSt14_Function_base13_Base_managerINSt8__detail11_AnyMatcherINSt7__cxx1112regex_traitsIcEELb0ELb0ELb1EEEE10_M_destroyERSt9_Any_dataSt17integral_constantIbLb1EE
FNA:3,0,_ZNSt14_Function_base13_Base_managerINSt8__detail11_AnyMatcherINSt7__cxx1112regex_traitsIcEELb0ELb1ELb0EEEE10_M_destroyERSt9_Any_dataSt17integral_constantIbLb1EE
FNA:3,0,_ZNSt14_Function_base13_Base_managerINSt8__detail11_AnyMatcherINSt7__cxx1112regex_traitsIcEELb0ELb1ELb1EEEE10_M_destroyERSt9_Any_dataSt17integral_constantIbLb1EE
FNA:3,0,_ZNSt14_Function_base13_Base_managerINSt8__detail11_AnyMatcherINSt7__cxx1112regex_traitsIcEELb1ELb0ELb0EEEE10_M_destroyERSt9_Any_dataSt17integral_constantIbLb1EE
FNA:3,0,_ZNSt14_Function_base13_Base_managerINSt8__detail11_AnyMatcherINSt7__cxx1112regex_traitsIcEELb1ELb0ELb1EEEE10_M_destroyERSt9_Any_dataSt17integral_constantIbLb1EE
FNA:3,0,_ZNSt14_Function_base13_Base_managerINSt8__detail11_AnyMatcherINSt7__cxx1112regex_traitsIcEELb1ELb1ELb0EEEE10_M_destroyERSt9_Any_dataSt17integral_constantIbLb1EE
FNA:3,0,_ZNSt14_Function_base13_Base_managerINSt8__detail11_AnyMatcherINSt7__cxx1112regex_traitsIcEELb1ELb1ELb1EEEE10_M_destroyERSt9_Any_dataSt17integral_constantIbLb1EE
FNA:3,0,_ZNSt14_Function_base13_Base_managerINSt8__detail12_CharMatcherINSt7__cxx1112regex_traitsIcEELb0ELb0EEEE10_M_destroyERSt9_Any_dataSt17integral_constantIbLb1EE
FNA:3,0,_ZNSt14_Function_base13_Base_managerINSt8__detail12_CharMatcherINSt7__cxx1112regex_traitsIcEELb0ELb1EEEE10_M_destroyERSt9_Any_dataSt17integral_constantIbLb1EE
FNA:3,0,_ZNSt14_Function_base13_Base_managerINSt8__detail12_CharMatcherINSt7__cxx1112regex_traitsIcEELb1ELb0EEEE10_M_destroyERSt9_Any_dataSt17integral_constantIbLb1EE
FNA:3,0,_ZNSt14_Function_base13_Base_managerINSt8__detail12_CharMatcherINSt7__cxx1112regex_traitsIcEELb1ELb1EEEE10_M_destroyERSt9_Any_dataSt17integral_constantIbLb1EE
FNL:4,173,176
FNA:4,0,_ZNSt14_Function_base13_Base_managerINSt8__detail15_BracketMatcherINSt7__cxx1112regex_traitsIcEELb0ELb0EEEE10_M_destroyERSt9_Any_dataSt17integral_constantIbLb0EE
FNA:4,0,_ZNSt14_Function_base13_Base_managerINSt8__detail15_BracketMatcherINSt7__cxx1112regex_traitsIcEELb0ELb1EEEE10_M_destroyERSt9_Any_dataSt17integral_constantIbLb0EE
FNA:4,0,_ZNSt14_Function_base13_Base_managerINSt8__detail15_BracketMatcherINSt7__cxx1112regex_traitsIcEELb1ELb0EEEE10_M_destroyERSt9_Any_dataSt17integral_constantIbLb0EE
FNA:4,0,_ZNSt14_Function_base13_Base_managerINSt8__detail15_BracketMatcherINSt7__cxx1112regex_traitsIcEELb1ELb1EEEE10_M_destroyERSt9_Any_dataSt17integral_constantIbLb0EE
FNL:5,180,207
FNA:5,0,_ZNSt14_Function_base13_Base_managerINSt8__detail11_AnyMatcherINSt7__cxx1112regex_traitsIcEELb0ELb0ELb0EEEE10_M_managerERSt9_Any_dataRKS8_St18_Manager_operation
FNA:5,0,_ZNSt14_Function_base13_Base_managerINSt8__detail11_AnyMatcherINSt7__cxx1112regex_traitsIcEELb0ELb0ELb1EEEE10_M_managerERSt9_Any_dataRKS8_St18_Manager_operation
FNA:5,0,_ZNSt14_Function_base13_Base_managerINSt8__detail11_AnyMatcherINSt7__cxx1112regex_traitsIcEELb0ELb1ELb0EEEE10_M_managerERSt9_Any_dataRKS8_St18_Manager_operation
FNA:5,0,_ZNSt14_Function_base13_Base_managerINSt8__detail11_AnyMatcherINSt7__cxx1112regex_traitsIcEELb0ELb1ELb1EEEE10_M_managerERSt9_Any_dataRKS8_St18_Manager_operation
FNA:5,0,_ZNSt14_Function_base13_Base_managerINSt8__detail11_AnyMatcherINSt7__cxx1112regex_traitsIcEELb1ELb0ELb0EEEE10_M_managerERSt9_Any_dataRKS8_St18_Manager_operation
FNA:5,0,_ZNSt14_Function_base13_Base_managerINSt8__detail11_AnyMatcherINSt7__cxx1112regex_traitsIcEELb1ELb0ELb1EEEE10_M_managerERSt9_Any_dataRKS8_St18_Manager_operation
FNA:5,0,_ZNSt14_Function_base13_Base_managerINSt8__detail11_AnyMatcherINSt7__cxx1112regex_traitsIcEELb1ELb1ELb0EEEE10_M_managerERSt9_Any_dataRKS8_St18_Manager_operation
FNA:5,0,_ZNSt14_Function_base13_Base_managerINSt8__detail11_AnyMatcherINSt7__cxx1112regex_traitsIcEELb1ELb1ELb1EEEE10_M_managerERSt9_Any_dataRKS8_St18_Manager_operation
FNA:5,0,_ZNSt14_Function_base13_Base_managerINSt8__detail12_CharMatcherINSt7__cxx1112regex_traitsIcEELb0ELb0EEEE10_M_managerERSt9_Any_dataRKS8_St18_Manager_operation
FNA:5,0,_ZNSt14_Function_base13_Base_managerINSt8__detail12_CharMatcherINSt7__cxx1112regex_traitsIcEELb0ELb1EEEE10_M_managerERSt9_Any_dataRKS8_St18_Manager_operation
FNA:5,0,_ZNSt14_Function_base13_Base_managerINSt8__detail12_CharMatcherINSt7__cxx1112regex_traitsIcEELb1ELb0EEEE10_M_managerERSt9_Any_dataRKS8_St18_Manager_operation
FNA:5,0,_ZNSt14_Function_base13_Base_managerINSt8__detail12_CharMatcherINSt7__cxx1112regex_traitsIcEELb1ELb1EEEE10_M_managerERSt9_Any_dataRKS8_St18_Manager_operation
FNA:5,0,_ZNSt14_Function_base13_Base_managerINSt8__detail15_BracketMatcherINSt7__cxx1112regex_traitsIcEELb0ELb0EEEE10_M_managerERSt9_Any_dataRKS8_St18_Manager_operation
FNA:5,0,_ZNSt14_Function_base13_Base_managerINSt8__detail15_BracketMatcherINSt7__cxx1112regex_traitsIcEELb0ELb1EEEE10_M_managerERSt9_Any_dataRKS8_St18_Manager_operation
FNA:5,0,_ZNSt14_Function_base13_Base_managerINSt8__detail15_BracketMatcherINSt7__cxx1112regex_traitsIcEELb1ELb0EEEE10_M_managerERSt9_Any_dataRKS8_St18_Manager_operation
FNA:5,0,_ZNSt14_Function_base13_Base_managerINSt8__detail15_BracketMatcherINSt7__cxx1112regex_traitsIcEELb1ELb1EEEE10_M_managerERSt9_Any_dataRKS8_St18_Manager_operation
FNL:6,211,216
FNA:6,0,_ZNSt14_Function_base13_Base_managerINSt8__detail11_AnyMatcherINSt7__cxx1112regex_traitsIcEELb0ELb0ELb0EEEE15_M_init_functorIRKS6_EEvRSt9_Any_dataOT_
FNA:6,0,_ZNSt14_Function_base13_Base_managerINSt8__detail11_AnyMatcherINSt7__cxx1112regex_traitsIcEELb0ELb0ELb0EEEE15_M_init_functorIS6_EEvRSt9_Any_dataOT_
FNA:6,0,_ZNSt14_Function_base13_Base_managerINSt8__detail11_AnyMatcherINSt7__cxx1112regex_traitsIcEELb0ELb0ELb1EEEE15_M_init_functorIRKS6_EEvRSt9_Any_dataOT_
FNA:6,0,_ZNSt14_Function_base13_Base_managerINSt8__detail11_AnyMatcherINSt7__cxx1112regex_traitsIcEELb0ELb0ELb1EEEE15_M_init_functorIS6_EEvRSt9_Any_dataOT_
FNA:6,0,_ZNSt14_Function_base13_Base_managerINSt8__detail11_AnyMatcherINSt7__cxx1112regex_traitsIcEELb0ELb1ELb0EEEE15_M_init_functorIRKS6_EEvRSt9_Any_dataOT_
FNA:6,0,_ZNSt14_Function_base13_Base_managerINSt8__detail11_AnyMatcherINSt7__cxx1112regex_traitsIcEELb0ELb1ELb0EEEE15_M_init_functorIS6_EEvRSt9_Any_dataOT_
FNA:6,0,_ZNSt14_Function_base13_Base_managerINSt8__detail11_AnyMatcherINSt7__cxx1112regex_traitsIcEELb0ELb1ELb1EEEE15_M_init_functorIRKS6_EEvRSt9_Any_dataOT_
FNA:6,0,_ZNSt14_Function_base13_Base_managerINSt8__detail11_AnyMatcherINSt7__cxx1112regex_traitsIcEELb0ELb1ELb1EEEE15_M_init_functorIS6_EEvRSt9_Any_dataOT_
FNA:6,0,_ZNSt14_Function_base13_Base_managerINSt8__detail11_AnyMatcherINSt7__cxx1112regex_traitsIcEELb1ELb0ELb0EEEE15_M_init_functorIRKS6_EEvRSt9_Any_dataOT_
FNA:6,0,_ZNSt14_Function_base13_Base_managerINSt8__detail11_AnyMatcherINSt7__cxx1112regex_traitsIcEELb1ELb0ELb0EEEE15_M_init_functorIS6_EEvRSt9_Any_dataOT_
FNA:6,0,_ZNSt14_Function_base13_Base_managerINSt8__detail11_AnyMatcherINSt7__cxx1112regex_traitsIcEELb1ELb0ELb1EEEE15_M_init_functorIRKS6_EEvRSt9_Any_dataOT_
FNA:6,0,_ZNSt14_Function_base13_Base_managerINSt8__detail11_AnyMatcherINSt7__cxx1112regex_traitsIcEELb1ELb0ELb1EEEE15_M_init_functorIS6_EEvRSt9_Any_dataOT_
FNA:6,0,_ZNSt14_Function_base13_Base_managerINSt8__detail11_AnyMatcherINSt7__cxx1112regex_traitsIcEELb1ELb1ELb0EEEE15_M_init_functorIRKS6_EEvRSt9_Any_dataOT_
FNA:6,0,_ZNSt14_Function_base13_Base_managerINSt8__detail11_AnyMatcherINSt7__cxx1112regex_traitsIcEELb1ELb1ELb0EEEE15_M_init_functorIS6_EEvRSt9_Any_dataOT_
FNA:6,0,_ZNSt14_Function_base13_Base_managerINSt8__detail11_AnyMatcherINSt7__cxx1112regex_traitsIcEELb1ELb1ELb1EEEE15_M_init_functorIRKS6_EEvRSt9_Any_dataOT_
FNA:6,0,_ZNSt14_Function_base13_Base_managerINSt8__detail11_AnyMatcherINSt7__cxx1112regex_traitsIcEELb1ELb1ELb1EEEE15_M_init_functorIS6_EEvRSt9_Any_dataOT_
FNA:6,0,_ZNSt14_Function_base13_Base_managerINSt8__detail12_CharMatcherINSt7__cxx1112regex_traitsIcEELb0ELb0EEEE15_M_init_functorIRKS6_EEvRSt9_Any_dataOT_
FNA:6,0,_ZNSt14_Function_base13_Base_managerINSt8__detail12_CharMatcherINSt7__cxx1112regex_traitsIcEELb0ELb0EEEE15_M_init_functorIS6_EEvRSt9_Any_dataOT_
FNA:6,0,_ZNSt14_Function_base13_Base_managerINSt8__detail12_CharMatcherINSt7__cxx1112regex_traitsIcEELb0ELb1EEEE15_M_init_functorIRKS6_EEvRSt9_Any_dataOT_
FNA:6,0,_ZNSt14_Function_base13_Base_managerINSt8__detail12_CharMatcherINSt7__cxx1112regex_traitsIcEELb0ELb1EEEE15_M_init_functorIS6_EEvRSt9_Any_dataOT_
FNA:6,0,_ZNSt14_Function_base13_Base_managerINSt8__detail12_CharMatcherINSt7__cxx1112regex_traitsIcEELb1ELb0EEEE15_M_init_functorIRKS6_EEvRSt9_Any_dataOT_
FNA:6,0,_ZNSt14_Function_base13_Base_managerINSt8__detail12_CharMatcherINSt7__cxx1112regex_traitsIcEELb1ELb0EEEE15_M_init_functorIS6_EEvRSt9_Any_dataOT_
FNA:6,0,_ZNSt14_Function_base13_Base_managerINSt8__detail12_CharMatcherINSt7__cxx1112regex_traitsIcEELb1ELb1EEEE15_M_init_functorIRKS6_EEvRSt9_Any_dataOT_
FNA:6,0,_ZNSt14_Function_base13_Base_managerINSt8__detail12_CharMatcherINSt7__cxx1112regex_traitsIcEELb1ELb1EEEE15_M_init_functorIS6_EEvRSt9_Any_dataOT_
FNA:6,0,_ZNSt14_Function_base13_Base_managerINSt8__detail15_BracketMatcherINSt7__cxx1112regex_traitsIcEELb0ELb0EEEE15_M_init_functorIRKS6_EEvRSt9_Any_dataOT_
FNA:6,0,_ZNSt14_Function_base13_Base_managerINSt8__detail15_BracketMatcherINSt7__cxx1112regex_traitsIcEELb0ELb0EEEE15_M_init_functorIS6_EEvRSt9_Any_dataOT_
FNA:6,0,_ZNSt14_Function_base13_Base_managerINSt8__detail15_BracketMatcherINSt7__cxx1112regex_traitsIcEELb0ELb1EEEE15_M_init_functorIRKS6_EEvRSt9_Any_dataOT_
FNA:6,0,_ZNSt14_Function_base13_Base_managerINSt8__detail15_BracketMatcherINSt7__cxx1112regex_traitsIcEELb0ELb1EEEE15_M_init_functorIS6_EEvRSt9_Any_dataOT_
FNA:6,0,_ZNSt14_Function_base13_Base_managerINSt8__detail15_BracketMatcherINSt7__cxx1112regex_traitsIcEELb1ELb0EEEE15_M_init_functorIRKS6_EEvRSt9_Any_dataOT_
FNA:6,0,_ZNSt14_Function_base13_Base_managerINSt8__detail15_BracketMatcherINSt7__cxx1112regex_traitsIcEELb1ELb0EEEE15_M_init_functorIS6_EEvRSt9_Any_dataOT_
FNA:6,0,_ZNSt14_Function_base13_Base_managerINSt8__detail15_BracketMatcherINSt7__cxx1112regex_traitsIcEELb1ELb1EEEE15_M_init_functorIRKS6_EEvRSt9_Any_dataOT_
FNA:6,0,_ZNSt14_Function_base13_Base_managerINSt8__detail15_BracketMatcherINSt7__cxx1112regex_traitsIcEELb1ELb1EEEE15_M_init_functorIS6_EEvRSt9_Any_dataOT_
FNL:7,235,236
FNA:7,0,_ZNSt14_Function_base13_Base_managerINSt8__detail11_AnyMatcherINSt7__cxx1112regex_traitsIcEELb0ELb0ELb0EEEE21_M_not_empty_functionIS6_EEbRKT_
FNA:7,0,_ZNSt14_Function_base13_Base_managerINSt8__detail11_AnyMatcherINSt7__cxx1112regex_traitsIcEELb0ELb0ELb1EEEE21_M_not_empty_functionIS6_EEbRKT_
FNA:7,0,_ZNSt14_Function_base13_Base_managerINSt8__detail11_AnyMatcherINSt7__cxx1112regex_traitsIcEELb0ELb1ELb0EEEE21_M_not_empty_functionIS6_EEbRKT_
FNA:7,0,_ZNSt14_Function_base13_Base_managerINSt8__detail11_AnyMatcherINSt7__cxx1112regex_traitsIcEELb0ELb1ELb1EEEE21_M_not_empty_functionIS6_EEbRKT_
FNA:7,0,_ZNSt14_Function_base13_Base_managerINSt8__detail11_AnyMatcherINSt7__cxx1112regex_traitsIcEELb1ELb0ELb0EEEE21_M_not_empty_functionIS6_EEbRKT_
FNA:7,0,_ZNSt14_Function_base13_Base_managerINSt8__detail11_AnyMatcherINSt7__cxx1112regex_traitsIcEELb1ELb0ELb1EEEE21_M_not_empty_functionIS6_EEbRKT_
FNA:7,0,_ZNSt14_Function_base13_Base_managerINSt8__detail11_AnyMatcherINSt7__cxx1112regex_traitsIcEELb1ELb1ELb0EEEE21_M_not_empty_functionIS6_EEbRKT_
FNA:7,0,_ZNSt14_Function_base13_Base_managerINSt8__detail11_AnyMatcherINSt7__cxx1112regex_traitsIcEELb1ELb1ELb1EEEE21_M_not_empty_functionIS6_EEbRKT_
FNA:7,0,_ZNSt14_Function_base13_Base_managerINSt8__detail12_CharMatcherINSt7__cxx1112regex_traitsIcEELb0ELb0EEEE21_M_not_empty_functionIS6_EEbRKT_
FNA:7,0,_ZNSt14_Function_base13_Base_managerINSt8__detail12_CharMatcherINSt7__cxx1112regex_traitsIcEELb0ELb1EEEE21_M_not_empty_functionIS6_EEbRKT_
FNA:7,0,_ZNSt14_Function_base13_Base_managerINSt8__detail12_CharMatcherINSt7__cxx1112regex_traitsIcEELb1ELb0EEEE21_M_not_empty_functionIS6_EEbRKT_
FNA:7,0,_ZNSt14_Function_base13_Base_managerINSt8__detail12_CharMatcherINSt7__cxx1112regex_traitsIcEELb1ELb1EEEE21_M_not_empty_functionIS6_EEbRKT_
FNA:7,0,_ZNSt14_Function_base13_Base_managerINSt8__detail15_BracketMatcherINSt7__cxx1112regex_traitsIcEELb0ELb0EEEE21_M_not_empty_functionIS6_EEbRKT_
FNA:7,0,_ZNSt14_Function_base13_Base_managerINSt8__detail15_BracketMatcherINSt7__cxx1112regex_traitsIcEELb0ELb1EEEE21_M_not_empty_functionIS6_EEbRKT_
FNA:7,0,_ZNSt14_Function_base13_Base_managerINSt8__detail15_BracketMatcherINSt7__cxx1112regex_traitsIcEELb1ELb0EEEE21_M_not_empty_functionIS6_EEbRKT_
FNA:7,0,_ZNSt14_Function_base13_Base_managerINSt8__detail15_BracketMatcherINSt7__cxx1112regex_traitsIcEELb1ELb1EEEE21_M_not_empty_functionIS6_EEbRKT_
FNL:8,239,239
FNA:8,0,_ZNSt14_Function_baseC2Ev
FNL:9,241,245
FNA:9,0,_ZNSt14_Function_baseD2Ev
FNL:10,247,247
FNA:10,0,_ZNKSt14_Function_base8_M_emptyEv
FNL:11,267,285
FNA:11,0,_ZNSt17_Function_handlerIFbcENSt8__detail11_AnyMatcherINSt7__cxx1112regex_traitsIcEELb0ELb0ELb0EEEE10_M_managerERSt9_Any_dataRKS8_St18_Manager_operation
FNA:11,0,_ZNSt17_Function_handlerIFbcENSt8__detail11_AnyMatcherINSt7__cxx1112regex_traitsIcEELb0ELb0ELb1EEEE10_M_managerERSt9_Any_dataRKS8_St18_Manager_operation
FNA:11,0,_ZNSt17_Function_handlerIFbcENSt8__detail11_AnyMatcherINSt7__cxx1112regex_traitsIcEELb0ELb1ELb0EEEE10_M_managerERSt9_Any_dataRKS8_St18_Manager_operation
FNA:11,0,_ZNSt17_Function_handlerIFbcENSt8__detail11_AnyMatcherINSt7__cxx1112regex_traitsIcEELb0ELb1ELb1EEEE10_M_managerERSt9_Any_dataRKS8_St18_Manager_operation
FNA:11,0,_ZNSt17_Function_handlerIFbcENSt8__detail11_AnyMatcherINSt7__cxx1112regex_traitsIcEELb1ELb0ELb0EEEE10_M_managerERSt9_Any_dataRKS8_St18_Manager_operation
FNA:11,0,_ZNSt17_Function_handlerIFbcENSt8__detail11_AnyMatcherINSt7__cxx1112regex_traitsIcEELb1ELb0ELb1EEEE10_M_managerERSt9_Any_dataRKS8_St18_Manager_operation
FNA:11,0,_ZNSt17_Function_handlerIFbcENSt8__detail11_AnyMatcherINSt7__cxx1112regex_traitsIcEELb1ELb1ELb0EEEE10_M_managerERSt9_Any_dataRKS8_St18_Manager_operation
FNA:11,0,_ZNSt17_Function_handlerIFbcENSt8__detail11_AnyMatcherINSt7__cxx1112regex_traitsIcEELb1ELb1ELb1EEEE10_M_managerERSt9_Any_dataRKS8_St18_Manager_operation
FNA:11,0,_ZNSt17_Function_handlerIFbcENSt8__detail12_CharMatcherINSt7__cxx1112regex_traitsIcEELb0ELb0EEEE10_M_managerERSt9_Any_dataRKS8_St18_Manager_operation
FNA:11,0,_ZNSt17_Function_handlerIFbcENSt8__detail12_CharMatcherINSt7__cxx1112regex_traitsIcEELb0ELb1EEEE10_M_managerERSt9_Any_dataRKS8_St18_Manager_operation
FNA:11,0,_ZNSt17_Function_handlerIFbcENSt8__detail12_CharMatcherINSt7__cxx1112regex_traitsIcEELb1ELb0EEEE10_M_managerERSt9_Any_dataRKS8_St18_Manager_operation
FNA:11,0,_ZNSt17_Function_handlerIFbcENSt8__detail12_CharMatcherINSt7__cxx1112regex_traitsIcEELb1ELb1EEEE10_M_managerERSt9_Any_dataRKS8_St18_Manager_operation
FNA:11,0,_ZNSt17_Function_handlerIFbcENSt8__detail15_BracketMatcherINSt7__cxx1112regex_traitsIcEELb0ELb0EEEE10_M_managerERSt9_Any_dataRKS8_St18_Manager_operation
FNA:11,0,_ZNSt17_Function_handlerIFbcENSt8__detail15_BracketMatcherINSt7__cxx1112regex_traitsIcEELb0ELb1EEEE10_M_managerERSt9_Any_dataRKS8_St18_Manager_operation
FNA:11,0,_ZNSt17_Function_handlerIFbcENSt8__detail15_BracketMatcherINSt7__cxx1112regex_traitsIcEELb1ELb0EEEE10_M_managerERSt9_Any_dataRKS8_St18_Manager_operation
FNA:11,0,_ZNSt17_Function_handlerIFbcENSt8__detail15_BracketMatcherINSt7__cxx1112regex_traitsIcEELb1ELb1EEEE10_M_managerERSt9_Any_dataRKS8_St18_Manager_operation
FNL:12,288,292
FNA:12,0,_ZNSt17_Function_handlerIFbcENSt8__detail11_AnyMatcherINSt7__cxx1112regex_traitsIcEELb0ELb0ELb0EEEE9_M_invokeERKSt9_Any_dataOc
FNA:12,0,_ZNSt17_Function_handlerIFbcENSt8__detail11_AnyMatcherINSt7__cxx1112regex_traitsIcEELb0ELb0ELb1EEEE9_M_invokeERKSt9_Any_dataOc
FNA:12,0,_ZNSt17_Function_handlerIFbcENSt8__detail11_AnyMatcherINSt7__cxx1112regex_traitsIcEELb0ELb1ELb0EEEE9_M_invokeERKSt9_Any_dataOc
FNA:12,0,_ZNSt17_Function_handlerIFbcENSt8__detail11_AnyMatcherINSt7__cxx1112regex_traitsIcEELb0ELb1ELb1EEEE9_M_invokeERKSt9_Any_dataOc
FNA:12,0,_ZNSt17_Function_handlerIFbcENSt8__detail11_AnyMatcherINSt7__cxx1112regex_traitsIcEELb1ELb0ELb0EEEE9_M_invokeERKSt9_Any_dataOc
FNA:12,0,_ZNSt17_Function_handlerIFbcENSt8__detail11_AnyMatcherINSt7__cxx1112regex_traitsIcEELb1ELb0ELb1EEEE9_M_invokeERKSt9_Any_dataOc
FNA:12,0,_ZNSt17_Function_handlerIFbcENSt8__detail11_AnyMatcherINSt7__cxx1112regex_traitsIcEELb1ELb1ELb0EEEE9_M_invokeERKSt9_Any_dataOc
FNA:12,0,_ZNSt17_Function_handlerIFbcENSt8__detail11_AnyMatcherINSt7__cxx1112regex_traitsIcEELb1ELb1ELb1EEEE9_M_invokeERKSt9_Any_dataOc
FNA:12,0,_ZNSt17_Function_handlerIFbcENSt8__detail12_CharMatcherINSt7__cxx1112regex_traitsIcEELb0ELb0EEEE9_M_invokeERKSt9_Any_dataOc
FNA:12,0,_ZNSt17_Function_handlerIFbcENSt8__detail12_CharMatcherINSt7__cxx1112regex_traitsIcEELb0ELb1EEEE9_M_invokeERKSt9_Any_dataOc
FNA:12,0,_ZNSt17_Function_handlerIFbcENSt8__detail12_CharMatcherINSt7__cxx1112regex_traitsIcEELb1ELb0EEEE9_M_invokeERKSt9_Any_dataOc
FNA:12,0,_ZNSt17_Function_handlerIFbcENSt8__detail12_CharMatcherINSt7__cxx1112regex_traitsIcEELb1ELb1EEEE9_M_invokeERKSt9_Any_dataOc
FNA:12,0,_ZNSt17_Function_handlerIFbcENSt8__detail15_BracketMatcherINSt7__cxx1112regex_traitsIcEELb0ELb0EEEE9_M_invokeERKSt9_Any_dataOc
FNA:12,0,_ZNSt17_Function_handlerIFbcENSt8__detail15_BracketMatcherINSt7__cxx1112regex_traitsIcEELb0ELb1EEEE9_M_invokeERKSt9_Any_dataOc
FNA:12,0,_ZNSt17_Function_handlerIFbcENSt8__detail15_BracketMatcherINSt7__cxx1112regex_traitsIcEELb1ELb0EEEE9_M_invokeERKSt9_Any_dataOc
FNA:12,0,_ZNSt17_Function_handlerIFbcENSt8__detail15_BracketMatcherINSt7__cxx1112regex_traitsIcEELb1ELb1EEEE9_M_invokeERKSt9_Any_dataOc
FNL:13,368,369
FNA:13,0,_ZNSt8functionIFbcEEC1Ev
FNL:14,386,395
FNA:14,0,_ZNSt8functionIFbcEEC1ERKS1_
FNL:15,404,414
FNA:15,0,_ZNSt8functionIFbcEEC1EOS1_
FNL:16,435,454
FNA:16,0,_ZNSt8functionIFbcEEC1INSt8__detail11_AnyMatcherINSt7__cxx1112regex_traitsIcEELb0ELb0ELb0EEEvEEOT_
FNA:16,0,_ZNSt8functionIFbcEEC1INSt8__detail11_AnyMatcherINSt7__cxx1112regex_traitsIcEELb0ELb0ELb1EEEvEEOT_
FNA:16,0,_ZNSt8functionIFbcEEC1INSt8__detail11_AnyMatcherINSt7__cxx1112regex_traitsIcEELb0ELb1ELb0EEEvEEOT_
FNA:16,0,_ZNSt8functionIFbcEEC1INSt8__detail11_AnyMatcherINSt7__cxx1112regex_traitsIcEELb0ELb1ELb1EEEvEEOT_
FNA:16,0,_ZNSt8functionIFbcEEC1INSt8__detail11_AnyMatcherINSt7__cxx1112regex_traitsIcEELb1ELb0ELb0EEEvEEOT_
FNA:16,0,_ZNSt8functionIFbcEEC1INSt8__detail11_AnyMatcherINSt7__cxx1112regex_traitsIcEELb1ELb0ELb1EEEvEEOT_
FNA:16,0,_ZNSt8functionIFbcEEC1INSt8__detail11_AnyMatcherINSt7__cxx1112regex_traitsIcEELb1ELb1ELb0EEEvEEOT_
FNA:16,0,_ZNSt8functionIFbcEEC1INSt8__detail11_AnyMatcherINSt7__cxx1112regex_traitsIcEELb1ELb1ELb1EEEvEEOT_
FNA:16,0,_ZNSt8functionIFbcEEC1INSt8__detail12_CharMatcherINSt7__cxx1112regex_traitsIcEELb0ELb0EEEvEEOT_
FNA:16,0,_ZNSt8functionIFbcEEC1INSt8__detail12_CharMatcherINSt7__cxx1112regex_traitsIcEELb0ELb1EEEvEEOT_
FNA:16,0,_ZNSt8functionIFbcEEC1INSt8__detail12_CharMatcherINSt7__cxx1112regex_traitsIcEELb1ELb0EEEvEEOT_
FNA:16,0,_ZNSt8functionIFbcEEC1INSt8__detail12_CharMatcherINSt7__cxx1112regex_traitsIcEELb1ELb1EEEvEEOT_
FNA:16,0,_ZNSt8functionIFbcEEC1INSt8__detail15_BracketMatcherINSt7__cxx1112regex_traitsIcEELb0ELb0EEEvEEOT_
FNA:16,0,_ZNSt8functionIFbcEEC1INSt8__detail15_BracketMatcherINSt7__cxx1112regex_traitsIcEELb0ELb1EEEvEEOT_
FNA:16,0,_ZNSt8functionIFbcEEC1INSt8__detail15_BracketMatcherINSt7__cxx1112regex_traitsIcEELb1ELb0EEEvEEOT_
FNA:16,0,_ZNSt8functionIFbcEEC1INSt8__detail15_BracketMatcherINSt7__cxx1112regex_traitsIcEELb1ELb1EEEvEEOT_
FNL:17,487,491
FNA:17,0,_ZNSt8functionIFbcEEaSEOS1_
FNL:18,556,561
FNA:18,0,_ZNSt8functionIFbcEE4swapERS1_
FNL:19,573,574
FNA:19,0,_ZNKSt8functionIFbcEEcvbEv
FNL:20,587,592
FNA:20,0,_ZNKSt8functionIFbcEEclEc
FNL:21,85,85
FNA:21,0,_ZNSt9_Any_data9_M_accessEv
FNL:22,86,86
FNA:22,0,_ZNKSt9_Any_data9_M_accessEv
FNL:23,90,91
FNA:23,0,_ZNSt9_Any_data9_M_accessINSt8__detail11_AnyMatcherINSt7__cxx1112regex_traitsIcEELb0ELb0ELb0EEEEERT_v
FNA:23,0,_ZNSt9_Any_data9_M_accessINSt8__detail11_AnyMatcherINSt7__cxx1112regex_traitsIcEELb0ELb0ELb1EEEEERT_v
FNA:23,0,_ZNSt9_Any_data9_M_accessINSt8__detail11_AnyMatcherINSt7__cxx1112regex_traitsIcEELb0ELb1ELb0EEEEERT_v
FNA:23,0,_ZNSt9_Any_data9_M_accessINSt8__detail11_AnyMatcherINSt7__cxx1112regex_traitsIcEELb0ELb1ELb1EEEEERT_v
FNA:23,0,_ZNSt9_Any_data9_M_accessINSt8__detail11_AnyMatcherINSt7__cxx1112regex_traitsIcEELb1ELb0ELb0EEEEERT_v
FNA:23,0,_ZNSt9_Any_data9_M_accessINSt8__detail11_AnyMatcherINSt7__cxx1112regex_traitsIcEELb1ELb0ELb1EEEEERT_v
FNA:23,0,_ZNSt9_Any_data9_M_accessINSt8__detail11_AnyMatcherINSt7__cxx1112regex_traitsIcEELb1ELb1ELb0EEEEERT_v
FNA:23,0,_ZNSt9_Any_data9_M_accessINSt8__detail11_AnyMatcherINSt7__cxx1112regex_traitsIcEELb1ELb1ELb1EEEEERT_v
FNA:23,0,_ZNSt9_Any_data9_M_accessINSt8__detail12_CharMatcherINSt7__cxx1112regex_traitsIcEELb0ELb0EEEEERT_v
FNA:23,0,_ZNSt9_Any_data9_M_accessINSt8__detail12_CharMatcherINSt7__cxx1112regex_traitsIcEELb0ELb1EEEEERT_v
FNA:23,0,_ZNSt9_Any_data9_M_accessINSt8__detail12_CharMatcherINSt7__cxx1112regex_traitsIcEELb1ELb0EEEEERT_v
FNA:23,0,_ZNSt9_Any_data9_M_accessINSt8__detail12_CharMatcherINSt7__cxx1112regex_traitsIcEELb1ELb1EEEEERT_v
FNA:23,0,_ZNSt9_Any_data9_M_accessIPKSt9type_infoEERT_v
FNA:23,0,_ZNSt9_Any_data9_M_accessIPNSt8__detail11_AnyMatcherINSt7__cxx1112regex_traitsIcEELb0ELb0ELb0EEEEERT_v
FNA:23,0,_ZNSt9_Any_data9_M_accessIPNSt8__detail11_AnyMatcherINSt7__cxx1112regex_traitsIcEELb0ELb0ELb1EEEEERT_v
FNA:23,0,_ZNSt9_Any_data9_M_accessIPNSt8__detail11_AnyMatcherINSt7__cxx1112regex_traitsIcEELb0ELb1ELb0EEEEERT_v
FNA:23,0,_ZNSt9_Any_data9_M_accessIPNSt8__detail11_AnyMatcherINSt7__cxx1112regex_traitsIcEELb0ELb1ELb1EEEEERT_v
FNA:23,0,_ZNSt9_Any_data9_M_accessIPNSt8__detail11_AnyMatcherINSt7__cxx1112regex_traitsIcEELb1ELb0ELb0EEEEERT_v
FNA:23,0,_ZNSt9_Any_data9_M_accessIPNSt8__detail11_AnyMatcherINSt7__cxx1112regex_traitsIcEELb1ELb0ELb1EEEEERT_v
FNA:23,0,_ZNSt9_Any_data9_M_accessIPNSt8__detail11_AnyMatcherINSt7__cxx1112regex_traitsIcEELb1ELb1ELb0EEEEERT_v
FNA:23,0,_ZNSt9_Any_data9_M_accessIPNSt8__detail11_AnyMatcherINSt7__cxx1112regex_traitsIcEELb1ELb1ELb1EEEEERT_v
FNA:23,0,_ZNSt9_Any_data9_M_accessIPNSt8__detail12_CharMatcherINSt7__cxx1112regex_traitsIcEELb0ELb0EEEEERT_v
FNA:23,0,_ZNSt9_Any_data9_M_accessIPNSt8__detail12_CharMatcherINSt7__cxx1112regex_traitsIcEELb0ELb1EEEEERT_v
FNA:23,0,_ZNSt9_Any_data9_M_accessIPNSt8__detail12_CharMatcherINSt7__cxx1112regex_traitsIcEELb1ELb0EEEEERT_v
FNA:23,0,_ZNSt9_Any_data9_M_accessIPNSt8__detail12_CharMatcherINSt7__cxx1112regex_traitsIcEELb1ELb1EEEEERT_v
FNA:23,0,_ZNSt9_Any_data9_M_accessIPNSt8__detail15_BracketMatcherINSt7__cxx1112regex_traitsIcEELb0ELb0EEEEERT_v
FNA:23,0,_ZNSt9_Any_data9_M_accessIPNSt8__detail15_BracketMatcherINSt7__cxx1112regex_traitsIcEELb0ELb1EEEEERT_v
FNA:23,0,_ZNSt9_Any_data9_M_accessIPNSt8__detail15_BracketMatcherINSt7__cxx1112regex_traitsIcEELb1ELb0EEEEERT_v
FNA:23,0,_ZNSt9_Any_data9_M_accessIPNSt8__detail15_BracketMatcherINSt7__cxx1112regex_traitsIcEELb1ELb1EEEEERT_v
FNL:24,95,96
FNA:24,0,_ZNKSt9_Any_data9_M_accessINSt8__detail11_AnyMatcherINSt7__cxx1112regex_traitsIcEELb0ELb0ELb0EEEEERKT_v
FNA:24,0,_ZNKSt9_Any_data9_M_accessINSt8__detail11_AnyMatcherINSt7__cxx1112regex_traitsIcEELb0ELb0ELb1EEEEERKT_v
FNA:24,0,_ZNKSt9_Any_data9_M_accessINSt8__detail11_AnyMatcherINSt7__cxx1112regex_traitsIcEELb0ELb1ELb0EEEEERKT_v
FNA:24,0,_ZNKSt9_Any_data9_M_accessINSt8__detail11_AnyMatcherINSt7__cxx1112regex_traitsIcEELb0ELb1ELb1EEEEERKT_v
FNA:24,0,_ZNKSt9_Any_data9_M_accessINSt8__detail11_AnyMatcherINSt7__cxx1112regex_traitsIcEELb1ELb0ELb0EEEEERKT_v
FNA:24,0,_ZNKSt9_Any_data9_M_accessINSt8__detail11_AnyMatcherINSt7__cxx1112regex_traitsIcEELb1ELb0ELb1EEEEERKT_v
FNA:24,0,_ZNKSt9_Any_data9_M_accessINSt8__detail11_AnyMatcherINSt7__cxx1112regex_traitsIcEELb1ELb1ELb0EEEEERKT_v
FNA:24,0,_ZNKSt9_Any_data9_M_accessINSt8__detail11_AnyMatcherINSt7__cxx1112regex_traitsIcEELb1ELb1ELb1EEEEERKT_v
FNA:24,0,_ZNKSt9_Any_data9_M_accessINSt8__detail12_CharMatcherINSt7__cxx1112regex_traitsIcEELb0ELb0EEEEERKT_v
FNA:24,0,_ZNKSt9_Any_data9_M_accessINSt8__detail12_CharMatcherINSt7__cxx1112regex_traitsIcEELb0ELb1EEEEERKT_v
FNA:24,0,_ZNKSt9_Any_data9_M_accessINSt8__detail12_CharMatcherINSt7__cxx1112regex_traitsIcEELb1ELb0EEEEERKT_v
FNA:24,0,_ZNKSt9_Any_data9_M_accessINSt8__detail12_CharMatcherINSt7__cxx1112regex_traitsIcEELb1ELb1EEEEERKT_v
FNA:24,0,_ZNKSt9_Any_data9_M_accessIPNSt8__detail15_BracketMatcherINSt7__cxx1112regex_traitsIcEELb0ELb0EEEEERKT_v
FNA:24,0,_ZNKSt9_Any_data9_M_accessIPNSt8__detail15_BracketMatcherINSt7__cxx1112regex_traitsIcEELb0ELb1EEEEERKT_v
FNA:24,0,_ZNKSt9_Any_data9_M_accessIPNSt8__detail15_BracketMatcherINSt7__cxx1112regex_traitsIcEELb1ELb0EEEEERKT_v
FNA:24,0,_ZNKSt9_Any_data9_M_accessIPNSt8__detail15_BracketMatcherINSt7__cxx1112regex_traitsIcEELb1ELb1EEEEERKT_v
FNF:25
FNH:0
DA:85,0
DA:86,0
DA:90,0
DA:91,0
DA:95,0
DA:96,0
DA:134,0
DA:138,0
DA:139,0
DA:142,0
DA:150,0
DA:152,0
DA:153,0
DA:158,0
DA:160,0
DA:161,0
DA:162,0
DA:166,0
DA:168,0
DA:169,0
DA:173,0
DA:175,0
DA:176,0
DA:180,0
DA:183,0
DA:185,0
DA:187,0
DA:191,0
DA:193,0
DA:194,0
DA:195,0
DA:197,0
DA:198,0
DA:199,0
DA:200,0
DA:202,0
DA:203,0
DA:204,0
DA:206,0
DA:211,0
DA:215,0
DA:216,0
DA:235,0
DA:236,0
DA:239,0
DA:241,0
DA:243,0
DA:244,0
DA:245,0
DA:247,0
DA:267,0
DA:270,0
DA:273,0
DA:274,0
DA:275,0
DA:277,0
DA:278,0
DA:279,0
DA:281,0
DA:282,0
DA:284,0
DA:288,0
DA:290,0
DA:291,0
DA:368,0
DA:369,0
DA:386,0
DA:387,0
DA:389,0
DA:391,0
DA:392,0
DA:393,0
DA:395,0
DA:404,0
DA:405,0
DA:407,0
DA:409,0
DA:410,0
DA:411,0
DA:412,0
DA:414,0
DA:435,0
DA:437,0
DA:447,0
DA:449,0
DA:451,0
DA:452,0
DA:454,0
DA:487,0
DA:489,0
DA:490,0
DA:556,0
DA:558,0
DA:559,0
DA:560,0
DA:561,0
DA:573,0
DA:574,0
DA:587,0
DA:589,0
DA:590,0
DA:591,0
LF:102
LH:0
end_of_record
TN:
SF:/opt/local/include/gcc14/c++/bits/stl_algo.h
FNL:0,1589,1597
FNA:0,0,_ZSt13__heap_selectIN9__gnu_cxx17__normal_iteratorIPcSt6vectorIcSaIcEEEENS0_5__ops15_Iter_less_iterEEvT_S9_S9_T0_
FNL:1,1750,1764
FNA:1,0,_ZSt25__unguarded_linear_insertIN9__gnu_cxx17__normal_iteratorIPcSt6vectorIcSaIcEEEENS0_5__ops14_Val_less_iterEEvT_T0_
FNL:2,1770,1788
FNA:2,0,_ZSt16__insertion_sortIN9__gnu_cxx17__normal_iteratorIPcSt6vectorIcSaIcEEEENS0_5__ops15_Iter_less_iterEEvT_S9_T0_
FNL:3,1794,1800
FNA:3,0,_ZSt26__unguarded_insertion_sortIN9__gnu_cxx17__normal_iteratorIPcSt6vectorIcSaIcEEEENS0_5__ops15_Iter_less_iterEEvT_S9_T0_
FNL:4,1812,1823
FNA:4,0,_ZSt22__final_insertion_sortIN9__gnu_cxx17__normal_iteratorIPcSt6vectorIcSaIcEEEENS0_5__ops15_Iter_less_iterEEvT_S9_T0_
FNL:5,1829,1845
FNA:5,0,_ZSt21__unguarded_partitionIN9__gnu_cxx17__normal_iteratorIPcSt6vectorIcSaIcEEEENS0_5__ops15_Iter_less_iterEET_S9_S9_S9_T0_
FNL:6,1851,1858
FNA:6,0,_ZSt27__unguarded_partition_pivotIN9__gnu_cxx17__normal_iteratorIPcSt6vectorIcSaIcEEEENS0_5__ops15_Iter_less_iterEET_S9_S9_T0_
FNL:7,1863,1870
FNA:7,0,_ZSt14__partial_sortIN9__gnu_cxx17__normal_iteratorIPcSt6vectorIcSaIcEEEENS0_5__ops15_Iter_less_iterEEvT_S9_S9_T0_
FNL:8,1876,1893
FNA:8,0,_ZSt16__introsort_loopIN9__gnu_cxx17__normal_iteratorIPcSt6vectorIcSaIcEEEElNS0_5__ops15_Iter_less_iterEEvT_S9_T0_T1_
FNL:9,1900,1910
FNA:9,0,_ZSt6__sortIN9__gnu_cxx17__normal_iteratorIPcSt6vectorIcSaIcEEEENS0_5__ops15_Iter_less_iterEEvT_S9_T0_
FNL:10,2194,2208
FNA:10,0,_ZSt13binary_searchIN9__gnu_cxx17__normal_iteratorIPKcSt6vectorIcSaIcEEEEcEbT_S8_RKT0_
FNL:11,3841,3851
FNA:11,0,_ZSt4findIN9__gnu_cxx17__normal_iteratorIPKNSt7__cxx1112basic_stringIcSt11char_traitsIcESaIcEEESt6vectorIS7_SaIS7_EEEES7_ET_SE_SE_RKT0_
FNA:11,0,_ZSt4findIPKccET_S2_S2_RKT0_
FNL:12,4761,4772
FNA:12,0,_ZSt4sortIN9__gnu_cxx17__normal_iteratorIPcSt6vectorIcSaIcEEEEEvT_S7_
FNL:13,839,852
FNA:13,0,_ZSt15__adjacent_findIN9__gnu_cxx17__normal_iteratorIPcSt6vectorIcSaIcEEEENS0_5__ops19_Iter_equal_to_iterEET_S9_S9_T0_
FNL:14,85,103
FNA:14,0,_ZSt22__move_median_to_firstIN9__gnu_cxx17__normal_iteratorIPcSt6vectorIcSaIcEEEENS0_5__ops15_Iter_less_iterEEvT_S9_S9_S9_T0_
FNL:15,857,872
FNA:15,0,_ZSt8__uniqueIN9__gnu_cxx17__normal_iteratorIPcSt6vectorIcSaIcEEEENS0_5__ops19_Iter_equal_to_iterEET_S9_S9_T0_
FNL:16,891,902
FNA:16,0,_ZSt6uniqueIN9__gnu_cxx17__normal_iteratorIPcSt6vectorIcSaIcEEEEET_S7_S7_
FNF:17
FNH:0
DA:85,0
DA:88,0
DA:90,0
DA:91,0
DA:92,0
DA:93,0
DA:95,0
DA:97,0
DA:98,0
DA:99,0
DA:100,0
DA:102,0
DA:103,0
DA:839,0
DA:842,0
DA:843,0
DA:844,0
DA:845,0
DA:847,0
DA:848,0
DA:849,0
DA:851,0
DA:857,0
DA:861,0
DA:862,0
DA:863,0
DA:866,0
DA:867,0
DA:868,0
DA:869,0
DA:870,0
DA:871,0
DA:891,0
DA:900,0
DA:901,0
DA:1589,0
DA:1593,0
DA:1594,0
DA:1595,0
DA:1596,0
DA:1597,0
DA:1750,0
DA:1754,0
DA:1755,0
DA:1756,0
DA:1757,0
DA:1759,0
DA:1760,0
DA:1761,0
DA:1763,0
DA:1764,0
DA:1770,0
DA:1773,0
DA:1775,0
DA:1777,0
DA:1780,0
DA:1781,0
DA:1782,0
DA:1785,0
DA:1786,0
DA:1794,0
DA:1797,0
DA:1798,0
DA:1799,0
DA:1800,0
DA:1812,0
DA:1815,0
DA:1817,0
DA:1818,0
DA:1822,0
DA:1823,0
DA:1829,0
DA:1835,0
DA:1836,0
DA:1837,0
DA:1838,0
DA:1839,0
DA:1840,0
DA:1841,0
DA:1842,0
DA:1843,0
DA:1851,0
DA:1854,0
DA:1855,0
DA:1857,0
DA:1863,0
DA:1868,0
DA:1869,0
DA:1870,0
DA:1876,0
DA:1880,0
DA:1882,0
DA:1884,0
DA:1885,0
DA:1887,0
DA:1889,0
DA:1890,0
DA:1891,0
DA:1900,0
DA:1903,0
DA:1905,0
DA:1906,0
DA:1908,0
DA:1910,0
DA:2194,0
DA:2205,0
DA:2206,0
DA:2207,0
DA:3841,0
DA:3849,0
DA:3850,0
DA:4761,0
DA:4771,0
DA:4772,0
LF:114
LH:0
end_of_record
TN:
SF:/opt/local/include/gcc14/c++/bits/stl_algobase.h
FNL:0,1022,1030
FNA:0,0,_ZSt4fillIN9__gnu_cxx17__normal_iteratorIPNSt7__cxx119sub_matchINS1_IPcNS2_12basic_stringIcSt11char_traitsIcESaIcEEEEEEESt6vectorISB_SaISB_EEEESB_EvT_SH_RKT0_
FNL:1,1040,1040
FNA:1,0,_ZSt17__size_to_integerm
FNL:2,1140,1153
FNA:2,0,_ZSt10__fill_n_aIPNSt7__cxx119sub_matchIN9__gnu_cxx17__normal_iteratorIPcNS0_12basic_stringIcSt11char_traitsIcESaIcEEEEEEEmSB_ET_SD_T0_RKT1_St26random_access_iterator_tag
FNA:2,0,_ZSt10__fill_n_aIPbmbET_S1_T0_RKT1_St26random_access_iterator_tag
FNL:3,1175,1182
FNA:3,0,_ZSt6fill_nIPNSt7__cxx119sub_matchIN9__gnu_cxx17__normal_iteratorIPcNS0_12basic_stringIcSt11char_traitsIcESaIcEEEEEEEmSB_ET_SD_T0_RKT1_
FNA:3,0,_ZSt6fill_nIPbmbET_S1_T0_RKT1_
FNL:4,1205,1210
FNA:4,0,_ZNSt7__equalILb1EE5equalIcEEbPKT_S4_S4_
FNL:5,1236,1243
FNA:5,0,_ZSt12__equal_aux1IPcS0_EbT_S1_T0_
FNL:6,1248,1253
FNA:6,0,_ZSt11__equal_auxIN9__gnu_cxx17__normal_iteratorIPcNSt7__cxx1112basic_stringIcSt11char_traitsIcESaIcEEEEES9_EbT_SA_T0_
FNL:7,1488,1511
FNA:7,0,_ZSt13__lower_boundIN9__gnu_cxx17__normal_iteratorIPKcSt6vectorIcSaIcEEEEcNS0_5__ops14_Iter_less_valEET_SA_SA_RKT0_T1_
FNL:8,1544,1557
FNA:8,0,_ZSt4__lgIlET_S0_
FNL:9,155,187
FNA:9,0,_ZSt9iter_swapIN9__gnu_cxx17__normal_iteratorIPcSt6vectorIcSaIcEEEES6_EvT_T0_
FNL:10,1576,1587
FNA:10,0,_ZSt5equalIN9__gnu_cxx17__normal_iteratorIPcNSt7__cxx1112basic_stringIcSt11char_traitsIcESaIcEEEEES9_EbT_SA_T0_
FNL:11,1607,1619
FNA:11,0,_ZSt5equalIN9__gnu_cxx17__normal_iteratorIPcNSt7__cxx1112basic_stringIcSt11char_traitsIcESaIcEEEEES9_ZNSt8__detail16_Backref_matcherIS9_NS3_12regex_traitsIcEEE8_M_applyES9_S9_S9_S9_EUlccE_EbT_SG_T0_T1_
FNL:12,1626,1646
FNA:12,0,_ZSt8__equal4IN9__gnu_cxx17__normal_iteratorIPcNSt7__cxx1112basic_stringIcSt11char_traitsIcESaIcEEEEES9_EbT_SA_T0_SB_
FNL:13,1652,1674
FNA:13,0,_ZSt8__equal4IN9__gnu_cxx17__normal_iteratorIPcNSt7__cxx1112basic_stringIcSt11char_traitsIcESaIcEEEEES9_ZNSt8__detail16_Backref_matcherIS9_NS3_12regex_traitsIcEEE8_M_applyES9_S9_S9_S9_EUlccE_EbT_SG_T0_SH_T1_
FNL:14,2089,2135
FNA:14,0,_ZSt9__find_ifIN9__gnu_cxx17__normal_iteratorIPKNSt7__cxx1112basic_stringIcSt11char_traitsIcESaIcEEESt6vectorIS7_SaIS7_EEEENS0_5__ops16_Iter_equals_valIS8_EEET_SH_SH_T0_St26random_access_iterator_tag
FNA:14,0,_ZSt9__find_ifIPKcN9__gnu_cxx5__ops16_Iter_equals_valIS0_EEET_S6_S6_T0_St26random_access_iterator_tag
FNL:15,2140,2144
FNA:15,0,_ZSt9__find_ifIN9__gnu_cxx17__normal_iteratorIPKNSt7__cxx1112basic_stringIcSt11char_traitsIcESaIcEEESt6vectorIS7_SaIS7_EEEENS0_5__ops16_Iter_equals_valIS8_EEET_SH_SH_T0_
FNA:15,0,_ZSt9__find_ifIPKcN9__gnu_cxx5__ops16_Iter_equals_valIS0_EEET_S6_S6_T0_
FNL:16,233,241
FNA:16,29,_ZSt3minImERKT_S2_S2_
FNL:17,257,265
FNA:17,13,_ZSt3maxImERKT_S2_S2_
FNL:18,316,318
FNA:18,0,_ZSt12__niter_baseIPKcET_S2_
FNA:18,33,_ZSt12__niter_baseIPNSt7__cxx1112basic_stringIcSt11char_traitsIcESaIcEEEET_S7_
FNA:18,0,_ZSt12__niter_baseIPNSt7__cxx1112regex_traitsIcE10_RegexMaskEET_S5_
FNA:18,0,_ZSt12__niter_baseIPNSt7__cxx119sub_matchIN9__gnu_cxx17__normal_iteratorIPcNS0_12basic_stringIcSt11char_traitsIcESaIcEEEEEEEET_SD_
FNA:18,0,_ZSt12__niter_baseIPNSt8__detail6_StateIcEEET_S4_
FNA:18,0,_ZSt12__niter_baseIPPNSt8__detail9_StateSeqINSt7__cxx1112regex_traitsIcEEEEET_S8_
FNA:18,0,_ZSt12__niter_baseIPPlET_S2_
FNA:18,0,_ZSt12__niter_baseIPSt4pairINSt7__cxx1112basic_stringIcSt11char_traitsIcESaIcEEES6_EET_S9_
FNA:18,0,_ZSt12__niter_baseIPSt4pairIccEET_S3_
FNA:18,0,_ZSt12__niter_baseIPSt4pairIlSt6vectorINSt7__cxx119sub_matchIN9__gnu_cxx17__normal_iteratorIPcNS2_12basic_stringIcSt11char_traitsIcESaIcEEEEEEESaISD_EEEET_SI_
FNA:18,0,_ZSt12__niter_baseIPcET_S1_
FNA:18,0,_ZSt12__niter_baseIPmET_S1_
FNA:18,0,_ZSt12__niter_baseISt20back_insert_iteratorINSt7__cxx1112basic_stringIcSt11char_traitsIcESaIcEEEEET_S8_
FNL:19,346,347
FNA:19,0,_ZSt12__niter_wrapIN9__gnu_cxx17__normal_iteratorIPNSt7__cxx119sub_matchINS1_IPcNS2_12basic_stringIcSt11char_traitsIcESaIcEEEEEEESt6vectorISB_SaISB_EEEESC_ET_SH_T0_
FNA:19,0,_ZSt12__niter_wrapIN9__gnu_cxx17__normal_iteratorIPcSt6vectorIcSaIcEEEES2_ET_S7_T0_
FNL:20,353,354
FNA:20,0,_ZSt12__niter_wrapIPNSt7__cxx119sub_matchIN9__gnu_cxx17__normal_iteratorIPcNS0_12basic_stringIcSt11char_traitsIcESaIcEEEEEEEET_RKSD_SD_
FNA:20,0,_ZSt12__niter_wrapIPPNSt8__detail9_StateSeqINSt7__cxx1112regex_traitsIcEEEEET_RKS8_S8_
FNA:20,0,_ZSt12__niter_wrapIPPlET_RKS2_S2_
FNA:20,0,_ZSt12__niter_wrapIPcET_RKS1_S1_
FNA:20,0,_ZSt12__niter_wrapISt20back_insert_iteratorINSt7__cxx1112basic_stringIcSt11char_traitsIcESaIcEEEEET_RKS8_S8_
FNL:21,398,408
FNA:21,0,_ZNSt11__copy_moveILb0ELb0ESt26random_access_iterator_tagE8__copy_mIPKNSt7__cxx119sub_matchIN9__gnu_cxx17__normal_iteratorIPcNS3_12basic_stringIcSt11char_traitsIcESaIcEEEEEEEPSE_EET0_T_SJ_SI_
FNA:21,0,_ZNSt11__copy_moveILb0ELb0ESt26random_access_iterator_tagE8__copy_mIPKcSt20back_insert_iteratorINSt7__cxx1112basic_stringIcSt11char_traitsIcESaIcEEEEEET0_T_SE_SD_
FNA:21,0,_ZNSt11__copy_moveILb0ELb0ESt26random_access_iterator_tagE8__copy_mIPNSt7__cxx119sub_matchIN9__gnu_cxx17__normal_iteratorIPcNS3_12basic_stringIcSt11char_traitsIcESaIcEEEEEEESF_EET0_T_SH_SG_
FNA:21,0,_ZNSt11__copy_moveILb0ELb0ESt26random_access_iterator_tagE8__copy_mIPcSt20back_insert_iteratorINSt7__cxx1112basic_stringIcSt11char_traitsIcESaIcEEEEEET0_T_SD_SC_
FNL:22,412,413
FNA:22,0,_ZNSt11__copy_moveILb0ELb0ESt26random_access_iterator_tagE12__assign_oneIPNSt8__detail9_StateSeqINSt7__cxx1112regex_traitsIcEEEES9_EEvPT_PT0_
FNA:22,0,_ZNSt11__copy_moveILb0ELb0ESt26random_access_iterator_tagE12__assign_oneIPlS3_EEvPT_PT0_
FNA:22,0,_ZNSt11__copy_moveILb0ELb0ESt26random_access_iterator_tagE12__assign_oneIcKcEEvPT_PT0_
FNA:22,0,_ZNSt11__copy_moveILb0ELb0ESt26random_access_iterator_tagE12__assign_oneIccEEvPT_PT0_
FNL:23,437,438
FNA:23,0,_ZNSt11__copy_moveILb1ELb0ESt26random_access_iterator_tagE12__assign_oneIccEEvPT_PT0_
FNL:24,448,457
FNA:24,0,_ZNSt11__copy_moveILb0ELb1ESt26random_access_iterator_tagE8__copy_mIKccEEPT0_PT_S7_S5_
FNA:24,0,_ZNSt11__copy_moveILb0ELb1ESt26random_access_iterator_tagE8__copy_mIPNSt8__detail9_StateSeqINSt7__cxx1112regex_traitsIcEEEES9_EEPT0_PT_SD_SB_
FNA:24,0,_ZNSt11__copy_moveILb0ELb1ESt26random_access_iterator_tagE8__copy_mIPlS3_EEPT0_PT_S7_S5_
FNA:24,0,_ZNSt11__copy_moveILb0ELb1ESt26random_access_iterator_tagE8__copy_mIccEEPT0_PT_S6_S4_
FNA:24,0,_ZNSt11__copy_moveILb1ELb1ESt26random_access_iterator_tagE8__copy_mIccEEPT0_PT_S6_S4_
FNL:25,512,522
FNA:25,0,_ZSt14__copy_move_a2ILb0EPKNSt7__cxx119sub_matchIN9__gnu_cxx17__normal_iteratorIPcNS0_12basic_stringIcSt11char_traitsIcESaIcEEEEEEEPSB_ET1_T0_SG_SF_
FNA:25,0,_ZSt14__copy_move_a2ILb0EPKcPcET1_T0_S4_S3_
FNA:25,0,_ZSt14__copy_move_a2ILb0EPKcSt20back_insert_iteratorINSt7__cxx1112basic_stringIcSt11char_traitsIcESaIcEEEEET1_T0_SB_SA_
FNA:25,0,_ZSt14__copy_move_a2ILb0EPNSt7__cxx119sub_matchIN9__gnu_cxx17__normal_iteratorIPcNS0_12basic_stringIcSt11char_traitsIcESaIcEEEEEEESC_ET1_T0_SE_SD_
FNA:25,0,_ZSt14__copy_move_a2ILb0EPPNSt8__detail9_StateSeqINSt7__cxx1112regex_traitsIcEEEES7_ET1_T0_S9_S8_
FNA:25,0,_ZSt14__copy_move_a2ILb0EPPlS1_ET1_T0_S3_S2_
FNA:25,0,_ZSt14__copy_move_a2ILb0EPcS0_ET1_T0_S2_S1_
FNA:25,0,_ZSt14__copy_move_a2ILb0EPcSt20back_insert_iteratorINSt7__cxx1112basic_stringIcSt11char_traitsIcESaIcEEEEET1_T0_SA_S9_
FNA:25,0,_ZSt14__copy_move_a2ILb1EPcS0_ET1_T0_S2_S1_
FNL:26,547,548
FNA:26,0,_ZSt14__copy_move_a1ILb0EPKNSt7__cxx119sub_matchIN9__gnu_cxx17__normal_iteratorIPcNS0_12basic_stringIcSt11char_traitsIcESaIcEEEEEEEPSB_ET1_T0_SG_SF_
FNA:26,0,_ZSt14__copy_move_a1ILb0EPKcPcET1_T0_S4_S3_
FNA:26,0,_ZSt14__copy_move_a1ILb0EPKcSt20back_insert_iteratorINSt7__cxx1112basic_stringIcSt11char_traitsIcESaIcEEEEET1_T0_SB_SA_
FNA:26,0,_ZSt14__copy_move_a1ILb0EPNSt7__cxx119sub_matchIN9__gnu_cxx17__normal_iteratorIPcNS0_12basic_stringIcSt11char_traitsIcESaIcEEEEEEESC_ET1_T0_SE_SD_
FNA:26,0,_ZSt14__copy_move_a1ILb0EPPNSt8__detail9_StateSeqINSt7__cxx1112regex_traitsIcEEEES7_ET1_T0_S9_S8_
FNA:26,0,_ZSt14__copy_move_a1ILb0EPPlS1_ET1_T0_S3_S2_
FNA:26,0,_ZSt14__copy_move_a1ILb0EPcS0_ET1_T0_S2_S1_
FNA:26,0,_ZSt14__copy_move_a1ILb0EPcSt20back_insert_iteratorINSt7__cxx1112basic_stringIcSt11char_traitsIcESaIcEEEEET1_T0_SA_S9_
FNA:26,0,_ZSt14__copy_move_a1ILb1EPcS0_ET1_T0_S2_S1_
FNL:27,553,559
FNA:27,0,_ZSt13__copy_move_aILb0EN9__gnu_cxx17__normal_iteratorIPKNSt7__cxx119sub_matchINS1_IPcNS2_12basic_stringIcSt11char_traitsIcESaIcEEEEEEESt6vectorISB_SaISB_EEEENS1_IPSB_SG_EEET1_T0_SL_SK_
FNA:27,0,_ZSt13__copy_move_aILb0EN9__gnu_cxx17__normal_iteratorIPKcSt6vectorIcSaIcEEEEPcET1_T0_SA_S9_
FNA:27,0,_ZSt13__copy_move_aILb0EN9__gnu_cxx17__normal_iteratorIPcNSt7__cxx1112basic_stringIcSt11char_traitsIcESaIcEEEEESt20back_insert_iteratorIS8_EET1_T0_SD_SC_
FNA:27,0,_ZSt13__copy_move_aILb0EPKcPcET1_T0_S4_S3_
FNA:27,0,_ZSt13__copy_move_aILb0EPKcSt20back_insert_iteratorINSt7__cxx1112basic_stringIcSt11char_traitsIcESaIcEEEEET1_T0_SB_SA_
FNA:27,0,_ZSt13__copy_move_aILb0EPNSt7__cxx119sub_matchIN9__gnu_cxx17__normal_iteratorIPcNS0_12basic_stringIcSt11char_traitsIcESaIcEEEEEEESC_ET1_T0_SE_SD_
FNA:27,0,_ZSt13__copy_move_aILb0EPPNSt8__detail9_StateSeqINSt7__cxx1112regex_traitsIcEEEES7_ET1_T0_S9_S8_
FNA:27,0,_ZSt13__copy_move_aILb0EPPlS1_ET1_T0_S3_S2_
FNA:27,0,_ZSt13__copy_move_aILb0EPcS0_ET1_T0_S2_S1_
FNA:27,0,_ZSt13__copy_move_aILb1EN9__gnu_cxx17__normal_iteratorIPcSt6vectorIcSaIcEEEES6_ET1_T0_S8_S7_
FNL:28,642,652
FNA:28,0,_ZSt4copyIN9__gnu_cxx17__normal_iteratorIPKNSt7__cxx119sub_matchINS1_IPcNS2_12basic_stringIcSt11char_traitsIcESaIcEEEEEEESt6vectorISB_SaISB_EEEENS1_IPSB_SG_EEET0_T_SL_SK_
FNA:28,0,_ZSt4copyIN9__gnu_cxx17__normal_iteratorIPKcSt6vectorIcSaIcEEEEPcET0_T_SA_S9_
FNA:28,0,_ZSt4copyIN9__gnu_cxx17__normal_iteratorIPcNSt7__cxx1112basic_stringIcSt11char_traitsIcESaIcEEEEESt20back_insert_iteratorIS8_EET0_T_SD_SC_
FNA:28,0,_ZSt4copyIPKcPcET0_T_S4_S3_
FNA:28,0,_ZSt4copyIPKcSt20back_insert_iteratorINSt7__cxx1112basic_stringIcSt11char_traitsIcESaIcEEEEET0_T_SB_SA_
FNA:28,0,_ZSt4copyIPNSt7__cxx119sub_matchIN9__gnu_cxx17__normal_iteratorIPcNS0_12basic_stringIcSt11char_traitsIcESaIcEEEEEEESC_ET0_T_SE_SD_
FNA:28,0,_ZSt4copyIPPNSt8__detail9_StateSeqINSt7__cxx1112regex_traitsIcEEEES7_ET0_T_S9_S8_
FNA:28,0,_ZSt4copyIPPlS1_ET0_T_S3_S2_
FNA:28,0,_ZSt4copyIPcS0_ET0_T_S2_S1_
FNL:29,675,685
FNA:29,0,_ZSt4moveIN9__gnu_cxx17__normal_iteratorIPcSt6vectorIcSaIcEEEES6_ET0_T_S8_S7_
FNL:30,762,771
FNA:30,0,_ZNSt20__copy_move_backwardILb0ELb1ESt26random_access_iterator_tagE13__copy_move_bIPNSt8__detail9_StateSeqINSt7__cxx1112regex_traitsIcEEEES9_EEPT0_PT_SD_SB_
FNA:30,0,_ZNSt20__copy_move_backwardILb0ELb1ESt26random_access_iterator_tagE13__copy_move_bIPlS3_EEPT0_PT_S7_S5_
FNA:30,0,_ZNSt20__copy_move_backwardILb1ELb1ESt26random_access_iterator_tagE13__copy_move_bIccEEPT0_PT_S6_S4_
FNL:31,777,790
FNA:31,0,_ZSt23__copy_move_backward_a2ILb0EPPNSt8__detail9_StateSeqINSt7__cxx1112regex_traitsIcEEEES7_ET1_T0_S9_S8_
FNA:31,0,_ZSt23__copy_move_backward_a2ILb0EPPlS1_ET1_T0_S3_S2_
FNA:31,0,_ZSt23__copy_move_backward_a2ILb1EPcS0_ET1_T0_S2_S1_
FNL:32,795,796
FNA:32,0,_ZSt23__copy_move_backward_a1ILb0EPPNSt8__detail9_StateSeqINSt7__cxx1112regex_traitsIcEEEES7_ET1_T0_S9_S8_
FNA:32,0,_ZSt23__copy_move_backward_a1ILb0EPPlS1_ET1_T0_S3_S2_
FNA:32,0,_ZSt23__copy_move_backward_a1ILb1EPcS0_ET1_T0_S2_S1_
FNL:33,823,829
FNA:33,0,_ZSt22__copy_move_backward_aILb0EPPNSt8__detail9_StateSeqINSt7__cxx1112regex_traitsIcEEEES7_ET1_T0_S9_S8_
FNA:33,0,_ZSt22__copy_move_backward_aILb0EPPlS1_ET1_T0_S3_S2_
FNA:33,0,_ZSt22__copy_move_backward_aILb1EN9__gnu_cxx17__normal_iteratorIPcSt6vectorIcSaIcEEEES6_ET1_T0_S8_S7_
FNL:34,878,889
FNA:34,0,_ZSt13copy_backwardIPPNSt8__detail9_StateSeqINSt7__cxx1112regex_traitsIcEEEES7_ET0_T_S9_S8_
FNA:34,0,_ZSt13copy_backwardIPPlS1_ET0_T_S3_S2_
FNL:35,913,925
FNA:35,0,_ZSt13move_backwardIN9__gnu_cxx17__normal_iteratorIPcSt6vectorIcSaIcEEEES6_ET0_T_S8_S7_
FNL:36,93,109
FNA:36,0,_ZSt8__memcmpIccEiPKT_PKT0_m
FNL:37,936,941
FNA:37,0,_ZSt9__fill_a1IPNSt7__cxx119sub_matchIN9__gnu_cxx17__normal_iteratorIPcNS0_12basic_stringIcSt11char_traitsIcESaIcEEEEEEESB_ENS2_11__enable_ifIXntsrSt11__is_scalarIT0_E7__valueEvE6__typeET_SJ_RKSF_
FNL:38,947,953
FNA:38,0,_ZSt9__fill_a1IPbbEN9__gnu_cxx11__enable_ifIXsrSt11__is_scalarIT0_E7__valueEvE6__typeET_S8_RKS4_
FNL:39,978,981
FNA:39,0,_ZSt9__fill_a1IPNSt7__cxx119sub_matchIN9__gnu_cxx17__normal_iteratorIPcNS0_12basic_stringIcSt11char_traitsIcESaIcEEEEEEESt6vectorISB_SaISB_EESB_EvNS3_IT_T0_EESI_RKT1_
FNL:40,997,998
FNA:40,0,_ZSt8__fill_aIN9__gnu_cxx17__normal_iteratorIPNSt7__cxx119sub_matchINS1_IPcNS2_12basic_stringIcSt11char_traitsIcESaIcEEEEEEESt6vectorISB_SaISB_EEEESB_EvT_SH_RKT0_
FNA:40,0,_ZSt8__fill_aIPNSt7__cxx119sub_matchIN9__gnu_cxx17__normal_iteratorIPcNS0_12basic_stringIcSt11char_traitsIcESaIcEEEEEEESB_EvT_SD_RKT0_
FNA:40,0,_ZSt8__fill_aIPbbEvT_S1_RKT0_
FNF:41
FNH:3
DA:93,0
DA:108,0
DA:155,0
DA:185,0
DA:187,0
DA:233,29
DA:238,29
DA:239,0
DA:240,29
DA:257,13
DA:262,13
DA:263,10
DA:264,3
DA:316,33
DA:318,33
DA:346,0
DA:347,0
DA:353,0
DA:354,0
DA:398,0
DA:401,0
DA:403,0
DA:404,0
DA:405,0
DA:407,0
DA:412,0
DA:413,0
DA:437,0
DA:438,0
DA:448,0
DA:450,0
DA:451,0
DA:452,0
DA:453,0
DA:455,0
DA:456,0
DA:512,0
DA:521,0
DA:547,0
DA:548,0
DA:553,0
DA:555,0
DA:558,0
DA:642,0
DA:651,0
DA:675,0
DA:683,0
DA:684,0
DA:762,0
DA:764,0
DA:765,0
DA:766,0
DA:767,0
DA:769,0
DA:770,0
DA:777,0
DA:787,0
DA:789,0
DA:795,0
DA:796,0
DA:823,0
DA:825,0
DA:828,0
DA:878,0
DA:888,0
DA:913,0
DA:922,0
DA:924,0
DA:936,0
DA:939,0
DA:940,0
DA:941,0
DA:947,0
DA:950,0
DA:951,0
DA:952,0
DA:953,0
DA:978,0
DA:981,0
DA:997,0
DA:998,0
DA:1022,0
DA:1029,0
DA:1030,0
DA:1040,0
DA:1140,0
DA:1146,0
DA:1147,0
DA:1151,0
DA:1152,0
DA:1175,0
DA:1180,0
DA:1181,0
DA:1205,0
DA:1207,0
DA:1208,0
DA:1209,0
DA:1236,0
DA:1239,0
DA:1242,0
DA:1248,0
DA:1250,0
DA:1252,0
DA:1488,0
DA:1494,0
DA:1496,0
DA:1498,0
DA:1499,0
DA:1501,0
DA:1503,0
DA:1504,0
DA:1505,0
DA:1508,0
DA:1510,0
DA:1544,0
DA:1547,0
DA:1576,0
DA:1586,0
DA:1607,0
DA:1615,0
DA:1616,0
DA:1617,0
DA:1618,0
DA:1626,0
DA:1632,0
DA:1634,0
DA:1635,0
DA:1636,0
DA:1637,0
DA:1638,0
DA:1641,0
DA:1642,0
DA:1643,0
DA:1644,0
DA:1645,0
DA:1652,0
DA:1659,0
DA:1661,0
DA:1662,0
DA:1663,0
DA:1664,0
DA:1665,0
DA:1666,0
DA:1669,0
DA:1670,0
DA:1671,0
DA:1672,0
DA:1673,0
DA:2089,0
DA:2093,0
DA:2095,0
DA:2097,0
DA:2098,0
DA:2099,0
DA:2101,0
DA:2102,0
DA:2103,0
DA:2105,0
DA:2106,0
DA:2107,0
DA:2109,0
DA:2110,0
DA:2111,0
DA:2114,0
DA:2116,0
DA:2117,0
DA:2118,0
DA:2119,0
DA:2121,0
DA:2122,0
DA:2123,0
DA:2124,0
DA:2126,0
DA:2127,0
DA:2128,0
DA:2129,0
DA:2131,0
DA:2133,0
DA:2140,0
DA:2142,0
DA:2143,0
LF:181
LH:9
end_of_record
TN:
SF:/opt/local/include/gcc14/c++/bits/stl_construct.h
FNL:0,109,120
FNA:0,0,_ZSt10_ConstructINSt7__cxx1112basic_stringIcSt11char_traitsIcESaIcEEEJRKS5_EEvPT_DpOT0_
FNA:0,0,_ZSt10_ConstructINSt7__cxx1112regex_traitsIcE10_RegexMaskEJRKS3_EEvPT_DpOT0_
FNA:0,0,_ZSt10_ConstructINSt7__cxx119sub_matchIN9__gnu_cxx17__normal_iteratorIPcNS0_12basic_stringIcSt11char_traitsIcESaIcEEEEEEEJRKSB_EEvPT_DpOT0_
FNA:0,0,_ZSt10_ConstructINSt7__cxx119sub_matchIN9__gnu_cxx17__normal_iteratorIPcNS0_12basic_stringIcSt11char_traitsIcESaIcEEEEEEEJRSB_EEvPT_DpOT0_
FNA:0,0,_ZSt10_ConstructINSt8__detail4_NFAINSt7__cxx1112regex_traitsIcEEEEJRKSt6localeRNSt15regex_constants18syntax_option_typeEEEvPT_DpOT0_
FNA:0,0,_ZSt10_ConstructISt4pairIN9__gnu_cxx17__normal_iteratorIPcNSt7__cxx1112basic_stringIcSt11char_traitsIcESaIcEEEEEiEJEEvPT_DpOT0_
FNA:0,0,_ZSt10_ConstructISt4pairINSt7__cxx1112basic_stringIcSt11char_traitsIcESaIcEEES6_EJRKS7_EEvPT_DpOT0_
FNA:0,0,_ZSt10_ConstructISt4pairIccEJRKS1_EEvPT_DpOT0_
FNL:1,146,153
FNA:1,13,_ZSt8_DestroyINSt7__cxx1112basic_stringIcSt11char_traitsIcESaIcEEEEvPT_
FNA:1,0,_ZSt8_DestroyINSt8__detail4_NFAINSt7__cxx1112regex_traitsIcEEEEEvPT_
FNA:1,0,_ZSt8_DestroyINSt8__detail6_StateIcEEEvPT_
FNA:1,0,_ZSt8_DestroyISt4pairINSt7__cxx1112basic_stringIcSt11char_traitsIcESaIcEEES6_EEvPT_
FNA:1,0,_ZSt8_DestroyISt4pairIlSt6vectorINSt7__cxx119sub_matchIN9__gnu_cxx17__normal_iteratorIPcNS2_12basic_stringIcSt11char_traitsIcESaIcEEEEEEESaISD_EEEEvPT_
FNL:2,160,164
FNA:2,0,_ZNSt12_Destroy_auxILb0EE9__destroyIPNSt7__cxx1112basic_stringIcSt11char_traitsIcESaIcEEEEEvT_S9_
FNA:2,0,_ZNSt12_Destroy_auxILb0EE9__destroyIPNSt8__detail6_StateIcEEEEvT_S6_
FNA:2,0,_ZNSt12_Destroy_auxILb0EE9__destroyIPSt4pairINSt7__cxx1112basic_stringIcSt11char_traitsIcESaIcEEES8_EEEvT_SB_
FNA:2,0,_ZNSt12_Destroy_auxILb0EE9__destroyIPSt4pairIlSt6vectorINSt7__cxx119sub_matchIN9__gnu_cxx17__normal_iteratorIPcNS4_12basic_stringIcSt11char_traitsIcESaIcEEEEEEESaISF_EEEEEvT_SK_
FNL:3,172,172
FNA:3,0,_ZNSt12_Destroy_auxILb1EE9__destroyIN9__gnu_cxx17__normal_iteratorIPNSt7__cxx119sub_matchINS3_IPcNS4_12basic_stringIcSt11char_traitsIcESaIcEEEEEEESt6vectorISD_SaISD_EEEEEEvT_SJ_
FNA:3,0,_ZNSt12_Destroy_auxILb1EE9__destroyIPNSt7__cxx1112regex_traitsIcE10_RegexMaskEEEvT_S7_
FNA:3,0,_ZNSt12_Destroy_auxILb1EE9__destroyIPNSt7__cxx119sub_matchIN9__gnu_cxx17__normal_iteratorIPcNS2_12basic_stringIcSt11char_traitsIcESaIcEEEEEEEEEvT_SF_
FNA:3,0,_ZNSt12_Destroy_auxILb1EE9__destroyIPSt4pairIN9__gnu_cxx17__normal_iteratorIPcNSt7__cxx1112basic_stringIcSt11char_traitsIcESaIcEEEEEiEEEvT_SF_
FNA:3,0,_ZNSt12_Destroy_auxILb1EE9__destroyIPSt4pairIccEEEvT_S5_
FNA:3,0,_ZNSt12_Destroy_auxILb1EE9__destroyIPcEEvT_S3_
FNA:3,0,_ZNSt12_Destroy_auxILb1EE9__destroyIPmEEvT_S3_
FNL:4,182,197
FNA:4,0,_ZSt8_DestroyIN9__gnu_cxx17__normal_iteratorIPNSt7__cxx119sub_matchINS1_IPcNS2_12basic_stringIcSt11char_traitsIcESaIcEEEEEEESt6vectorISB_SaISB_EEEEEvT_SH_
FNA:4,0,_ZSt8_DestroyIPNSt7__cxx1112basic_stringIcSt11char_traitsIcESaIcEEEEvT_S7_
FNA:4,0,_ZSt8_DestroyIPNSt7__cxx1112regex_traitsIcE10_RegexMaskEEvT_S5_
FNA:4,0,_ZSt8_DestroyIPNSt7__cxx119sub_matchIN9__gnu_cxx17__normal_iteratorIPcNS0_12basic_stringIcSt11char_traitsIcESaIcEEEEEEEEvT_SD_
FNA:4,0,_ZSt8_DestroyIPNSt8__detail6_StateIcEEEvT_S4_
FNA:4,0,_ZSt8_DestroyIPSt4pairIN9__gnu_cxx17__normal_iteratorIPcNSt7__cxx1112basic_stringIcSt11char_traitsIcESaIcEEEEEiEEvT_SD_
FNA:4,0,_ZSt8_DestroyIPSt4pairINSt7__cxx1112basic_stringIcSt11char_traitsIcESaIcEEES6_EEvT_S9_
FNA:4,0,_ZSt8_DestroyIPSt4pairIccEEvT_S3_
FNA:4,0,_ZSt8_DestroyIPSt4pairIlSt6vectorINSt7__cxx119sub_matchIN9__gnu_cxx17__normal_iteratorIPcNS2_12basic_stringIcSt11char_traitsIcESaIcEEEEEEESaISD_EEEEvT_SI_
FNA:4,0,_ZSt8_DestroyIPcEvT_S1_
FNA:4,0,_ZSt8_DestroyIPmEvT_S1_
FNF:5
FNH:1
DA:109,0
DA:119,0
DA:120,0
DA:146,13
DA:151,13
DA:153,13
DA:160,0
DA:162,0
DA:163,0
DA:164,0
DA:172,0
DA:182,0
DA:196,0
DA:197,0
LF:14
LH:3
end_of_record
TN:
SF:/opt/local/include/gcc14/c++/bits/stl_deque.h
FNL:0,1027,1028
FNA:0,0,_ZNSt5dequeINSt8__detail9_StateSeqINSt7__cxx1112regex_traitsIcEEEESaIS5_EED1Ev
FNA:0,0,_ZNSt5dequeIlSaIlEED1Ev
FNL:1,1151,1152
FNA:1,0,_ZNSt5dequeINSt8__detail9_StateSeqINSt7__cxx1112regex_traitsIcEEEESaIS5_EE5beginEv
FNA:1,0,_ZNSt5dequeIlSaIlEE5beginEv
FNL:2,1170,1171
FNA:2,0,_ZNSt5dequeINSt8__detail9_StateSeqINSt7__cxx1112regex_traitsIcEEEESaIS5_EE3endEv
FNA:2,0,_ZNSt5dequeIlSaIlEE3endEv
FNL:3,1268,1269
FNA:3,0,_ZNKSt5dequeINSt8__detail9_StateSeqINSt7__cxx1112regex_traitsIcEEEESaIS5_EE4sizeEv
FNA:3,0,_ZNKSt5dequeIlSaIlEE4sizeEv
FNL:4,1274,1275
FNA:4,0,_ZNKSt5dequeINSt8__detail9_StateSeqINSt7__cxx1112regex_traitsIcEEEESaIS5_EE8max_sizeEv
FNA:4,0,_ZNKSt5dequeIlSaIlEE8max_sizeEv
FNL:5,131,132
FNA:5,0,_ZNSt15_Deque_iteratorINSt8__detail9_StateSeqINSt7__cxx1112regex_traitsIcEEEERS5_PS5_E14_S_buffer_sizeEv
FNA:5,0,_ZNSt15_Deque_iteratorIlRlPlE14_S_buffer_sizeEv
FNL:6,1347,1348
FNA:6,0,_ZNKSt5dequeINSt8__detail9_StateSeqINSt7__cxx1112regex_traitsIcEEEESaIS5_EE5emptyEv
FNA:6,0,_ZNKSt5dequeIlSaIlEE5emptyEv
FNL:7,1468,1474
FNA:7,0,_ZNSt5dequeINSt8__detail9_StateSeqINSt7__cxx1112regex_traitsIcEEEESaIS5_EE4backEv
FNA:7,0,_ZNSt5dequeIlSaIlEE4backEv
FNL:8,151,152
FNA:8,0,_ZNSt15_Deque_iteratorINSt8__detail9_StateSeqINSt7__cxx1112regex_traitsIcEEEERS5_PS5_EC1Ev
FNA:8,0,_ZNSt15_Deque_iteratorIlRlPlEC1Ev
FNL:9,1538,1549
FNA:9,0,_ZNSt5dequeINSt8__detail9_StateSeqINSt7__cxx1112regex_traitsIcEEEESaIS5_EE9push_backERKS5_
FNA:9,0,_ZNSt5dequeIlSaIlEE9push_backERKl
FNL:10,1553,1554
FNA:10,0,_ZNSt5dequeINSt8__detail9_StateSeqINSt7__cxx1112regex_traitsIcEEEESaIS5_EE9push_backEOS5_
FNL:11,1597,1609
FNA:11,0,_ZNSt5dequeINSt8__detail9_StateSeqINSt7__cxx1112regex_traitsIcEEEESaIS5_EE8pop_backEv
FNA:11,0,_ZNSt5dequeIlSaIlEE8pop_backEv
FNL:12,168,170
FNA:12,0,_ZNSt15_Deque_iteratorINSt8__detail9_StateSeqINSt7__cxx1112regex_traitsIcEEEERS5_PS5_EC1ERKS8_
FNA:12,0,_ZNSt15_Deque_iteratorIlRlPlEC1ERKS2_
FNL:13,181,182
FNA:13,0,_ZNKSt15_Deque_iteratorINSt8__detail9_StateSeqINSt7__cxx1112regex_traitsIcEEEERS5_PS5_EdeEv
FNA:13,0,_ZNKSt15_Deque_iteratorIlRlPlEdeEv
FNL:14,1876,1881
FNA:14,0,_ZNSt5dequeINSt8__detail9_StateSeqINSt7__cxx1112regex_traitsIcEEEESaIS5_EE11_S_max_sizeERKS6_
FNA:14,0,_ZNSt5dequeIlSaIlEE11_S_max_sizeERKS0_
FNL:15,2087,2092
FNA:15,0,_ZNSt5dequeINSt8__detail9_StateSeqINSt7__cxx1112regex_traitsIcEEEESaIS5_EE15_M_destroy_dataESt15_Deque_iteratorIS5_RS5_PS5_ESB_RKS6_
FNA:15,0,_ZNSt5dequeIlSaIlEE15_M_destroy_dataESt15_Deque_iteratorIlRlPlES5_RKS0_
FNL:16,210,219
FNA:16,0,_ZNSt15_Deque_iteratorINSt8__detail9_StateSeqINSt7__cxx1112regex_traitsIcEEEERS5_PS5_EmmEv
FNA:16,0,_ZNSt15_Deque_iteratorIlRlPlEmmEv
FNL:17,2168,2173
FNA:17,0,_ZNSt5dequeINSt8__detail9_StateSeqINSt7__cxx1112regex_traitsIcEEEESaIS5_EE22_M_reserve_map_at_backEm
FNA:17,0,_ZNSt5dequeIlSaIlEE22_M_reserve_map_at_backEm
FNL:18,263,268
FNA:18,0,_ZNSt15_Deque_iteratorINSt8__detail9_StateSeqINSt7__cxx1112regex_traitsIcEEEERS5_PS5_E11_M_set_nodeEPS7_
FNA:18,0,_ZNSt15_Deque_iteratorIlRlPlE11_M_set_nodeEPS1_
FNL:19,272,273
FNA:19,0,_ZSteqRKSt15_Deque_iteratorINSt8__detail9_StateSeqINSt7__cxx1112regex_traitsIcEEEERS5_PS5_ESA_
FNA:19,0,_ZSteqRKSt15_Deque_iteratorIlRlPlES4_
FNL:20,370,376
FNA:20,0,_ZStmiRKSt15_Deque_iteratorINSt8__detail9_StateSeqINSt7__cxx1112regex_traitsIcEEEERS5_PS5_ESA_
FNA:20,0,_ZStmiRKSt15_Deque_iteratorIlRlPlES4_
FNL:21,458,460
FNA:21,0,_ZNSt11_Deque_baseINSt8__detail9_StateSeqINSt7__cxx1112regex_traitsIcEEEESaIS5_EEC2Ev
FNA:21,0,_ZNSt11_Deque_baseIlSaIlEEC2Ev
FNL:22,516,518
FNA:22,0,_ZNSt11_Deque_baseINSt8__detail9_StateSeqINSt7__cxx1112regex_traitsIcEEEESaIS5_EE16_Deque_impl_dataC2Ev
FNA:22,0,_ZNSt11_Deque_baseIlSaIlEE16_Deque_impl_dataC2Ev
FNL:23,545,548
FNA:23,0,_ZNSt11_Deque_baseINSt8__detail9_StateSeqINSt7__cxx1112regex_traitsIcEEEESaIS5_EE11_Deque_implC1Ev
FNA:23,0,_ZNSt11_Deque_baseIlSaIlEE11_Deque_implC1Ev
FNL:24,568,569
FNA:24,0,_ZNSt11_Deque_baseINSt8__detail9_StateSeqINSt7__cxx1112regex_traitsIcEEEESaIS5_EE19_M_get_Tp_allocatorEv
FNA:24,0,_ZNSt11_Deque_baseIlSaIlEE19_M_get_Tp_allocatorEv
FNL:25,572,573
FNA:25,0,_ZNKSt11_Deque_baseINSt8__detail9_StateSeqINSt7__cxx1112regex_traitsIcEEEESaIS5_EE19_M_get_Tp_allocatorEv
FNA:25,0,_ZNKSt11_Deque_baseIlSaIlEE19_M_get_Tp_allocatorEv
FNL:26,576,577
FNA:26,0,_ZNKSt11_Deque_baseINSt8__detail9_StateSeqINSt7__cxx1112regex_traitsIcEEEESaIS5_EE20_M_get_map_allocatorEv
FNA:26,0,_ZNKSt11_Deque_baseIlSaIlEE20_M_get_map_allocatorEv
FNL:27,580,584
FNA:27,0,_ZNSt11_Deque_baseINSt8__detail9_StateSeqINSt7__cxx1112regex_traitsIcEEEESaIS5_EE16_M_allocate_nodeEv
FNA:27,0,_ZNSt11_Deque_baseIlSaIlEE16_M_allocate_nodeEv
FNL:28,587,591
FNA:28,0,_ZNSt11_Deque_baseINSt8__detail9_StateSeqINSt7__cxx1112regex_traitsIcEEEESaIS5_EE18_M_deallocate_nodeEPS5_
FNA:28,0,_ZNSt11_Deque_baseIlSaIlEE18_M_deallocate_nodeEPl
FNL:29,594,598
FNA:29,0,_ZNSt11_Deque_baseINSt8__detail9_StateSeqINSt7__cxx1112regex_traitsIcEEEESaIS5_EE15_M_allocate_mapEm
FNA:29,0,_ZNSt11_Deque_baseIlSaIlEE15_M_allocate_mapEm
FNL:30,601,605
FNA:30,0,_ZNSt11_Deque_baseINSt8__detail9_StateSeqINSt7__cxx1112regex_traitsIcEEEESaIS5_EE17_M_deallocate_mapEPPS5_m
FNA:30,0,_ZNSt11_Deque_baseIlSaIlEE17_M_deallocate_mapEPPlm
FNL:31,617,626
FNA:31,0,_ZNSt11_Deque_baseINSt8__detail9_StateSeqINSt7__cxx1112regex_traitsIcEEEESaIS5_EED2Ev
FNA:31,0,_ZNSt11_Deque_baseIlSaIlEED2Ev
FNL:32,638,673
FNA:32,0,_ZNSt11_Deque_baseINSt8__detail9_StateSeqINSt7__cxx1112regex_traitsIcEEEESaIS5_EE17_M_initialize_mapEm
FNA:32,0,_ZNSt11_Deque_baseIlSaIlEE17_M_initialize_mapEm
FNL:33,677,691
FNA:33,0,_ZNSt11_Deque_baseINSt8__detail9_StateSeqINSt7__cxx1112regex_traitsIcEEEESaIS5_EE15_M_create_nodesEPPS5_S9_
FNA:33,0,_ZNSt11_Deque_baseIlSaIlEE15_M_create_nodesEPPlS3_
FNL:34,695,701
FNA:34,0,_ZNSt11_Deque_baseINSt8__detail9_StateSeqINSt7__cxx1112regex_traitsIcEEEESaIS5_EE16_M_destroy_nodesEPPS5_S9_
FNA:34,0,_ZNSt11_Deque_baseIlSaIlEE16_M_destroy_nodesEPPlS3_
FNL:35,855,855
FNA:35,0,_ZNSt5dequeINSt8__detail9_StateSeqINSt7__cxx1112regex_traitsIcEEEESaIS5_EEC1Ev
FNA:35,0,_ZNSt5dequeIlSaIlEEC1Ev
FNL:36,96,98
FNA:36,0,_ZSt16__deque_buf_sizem
FNF:37
FNH:0
DA:96,0
DA:98,0
DA:131,0
DA:132,0
DA:151,0
DA:152,0
DA:168,0
DA:169,0
DA:170,0
DA:181,0
DA:182,0
DA:210,0
DA:212,0
DA:214,0
DA:215,0
DA:217,0
DA:218,0
DA:263,0
DA:265,0
DA:266,0
DA:267,0
DA:268,0
DA:272,0
DA:273,0
DA:370,0
DA:372,0
DA:373,0
DA:374,0
DA:375,0
DA:458,0
DA:459,0
DA:460,0
DA:516,0
DA:517,0
DA:518,0
DA:545,0
DA:547,0
DA:548,0
DA:568,0
DA:569,0
DA:572,0
DA:573,0
DA:576,0
DA:577,0
DA:580,0
DA:583,0
DA:587,0
DA:590,0
DA:591,0
DA:594,0
DA:596,0
DA:597,0
DA:601,0
DA:603,0
DA:605,0
DA:617,0
DA:620,0
DA:622,0
DA:623,0
DA:624,0
DA:626,0
DA:638,0
DA:641,0
DA:644,0
DA:645,0
DA:646,0
DA:653,0
DA:654,0
DA:655,0
DA:658,0
DA:659,0
DA:661,0
DA:662,0
DA:663,0
DA:664,0
DA:667,0
DA:668,0
DA:669,0
DA:670,0
DA:671,0
DA:672,0
DA:673,0
DA:677,0
DA:683,0
DA:684,0
DA:686,0
DA:688,0
DA:689,0
DA:691,0
DA:695,0
DA:699,0
DA:700,0
DA:701,0
DA:855,0
DA:1027,0
DA:1028,0
DA:1151,0
DA:1152,0
DA:1170,0
DA:1171,0
DA:1268,0
DA:1269,0
DA:1274,0
DA:1275,0
DA:1347,0
DA:1348,0
DA:1468,0
DA:1471,0
DA:1472,0
DA:1473,0
DA:1538,0
DA:1540,0
DA:1541,0
DA:1543,0
DA:1545,0
DA:1548,0
DA:1549,0
DA:1553,0
DA:1554,0
DA:1597,0
DA:1600,0
DA:1601,0
DA:1603,0
DA:1604,0
DA:1608,0
DA:1609,0
DA:1876,0
DA:1878,0
DA:1879,0
DA:1880,0
DA:2087,0
DA:2092,0
DA:2168,0
DA:2170,0
DA:2171,0
DA:2172,0
DA:2173,0
LF:137
LH:0
end_of_record
TN:
SF:/opt/local/include/gcc14/c++/bits/stl_function.h
FNL:0,1179,1180
FNA:0,0,_ZNKSt10_Select1stISt4pairIKllEEclERKS2_
FNL:1,374,375
FNA:1,0,_ZNKSt8equal_toINSt7__cxx1112basic_stringIcSt11char_traitsIcESaIcEEEEclERKS5_S8_
FNL:2,404,405
FNA:2,0,_ZNKSt4lessIlEclERKlS2_
FNF:3
FNH:0
DA:374,0
DA:375,0
DA:404,0
DA:405,0
DA:1179,0
DA:1180,0
LF:6
LH:0
end_of_record
TN:
SF:/opt/local/include/gcc14/c++/bits/stl_heap.h
FNL:0,135,147
FNA:0,0,_ZSt11__push_heapIN9__gnu_cxx17__normal_iteratorIPcSt6vectorIcSaIcEEEElcNS0_5__ops14_Iter_less_valEEvT_T0_SA_T1_RT2_
FNL:1,224,249
FNA:1,0,_ZSt13__adjust_heapIN9__gnu_cxx17__normal_iteratorIPcSt6vectorIcSaIcEEEElcNS0_5__ops15_Iter_less_iterEEvT_T0_SA_T1_T2_
FNL:2,254,267
FNA:2,0,_ZSt10__pop_heapIN9__gnu_cxx17__normal_iteratorIPcSt6vectorIcSaIcEEEENS0_5__ops15_Iter_less_iterEEvT_S9_S9_RT0_
FNL:3,340,362
FNA:3,0,_ZSt11__make_heapIN9__gnu_cxx17__normal_iteratorIPcSt6vectorIcSaIcEEEENS0_5__ops15_Iter_less_iterEEvT_S9_RT0_
FNL:4,419,427
FNA:4,0,_ZSt11__sort_heapIN9__gnu_cxx17__normal_iteratorIPcSt6vectorIcSaIcEEEENS0_5__ops15_Iter_less_iterEEvT_S9_RT0_
FNF:5
FNH:0
DA:135,0
DA:139,0
DA:140,0
DA:142,0
DA:143,0
DA:144,0
DA:146,0
DA:147,0
DA:224,0
DA:227,0
DA:228,0
DA:229,0
DA:231,0
DA:232,0
DA:234,0
DA:235,0
DA:236,0
DA:238,0
DA:240,0
DA:241,0
DA:243,0
DA:246,0
DA:247,0
DA:248,0
DA:249,0
DA:254,0
DA:262,0
DA:263,0
DA:264,0
DA:265,0
DA:266,0
DA:267,0
DA:340,0
DA:348,0
DA:349,0
DA:351,0
DA:352,0
DA:353,0
DA:355,0
DA:356,0
DA:358,0
DA:359,0
DA:360,0
DA:419,0
DA:422,0
DA:424,0
DA:425,0
DA:427,0
LF:48
LH:0
end_of_record
TN:
SF:/opt/local/include/gcc14/c++/bits/stl_iterator.h
FNL:0,1063,1064
FNA:0,0,_ZN9__gnu_cxx17__normal_iteratorIPcNSt7__cxx1112basic_stringIcSt11char_traitsIcESaIcEEEEC1Ev
FNL:1,1067,1068
FNA:1,24,_ZN9__gnu_cxx17__normal_iteratorIPKNSt7__cxx1112basic_stringIcSt11char_traitsIcESaIcEEESt6vectorIS6_SaIS6_EEEC1ERKS8_
FNA:1,0,_ZN9__gnu_cxx17__normal_iteratorIPKNSt7__cxx1112regex_traitsIcE10_RegexMaskESt6vectorIS4_SaIS4_EEEC1ERKS6_
FNA:1,0,_ZN9__gnu_cxx17__normal_iteratorIPKNSt7__cxx119sub_matchINS0_IPcNS1_12basic_stringIcSt11char_traitsIcESaIcEEEEEEESt6vectorISA_SaISA_EEEC1ERKSC_
FNA:1,0,_ZN9__gnu_cxx17__normal_iteratorIPKSt4pairINSt7__cxx1112basic_stringIcSt11char_traitsIcESaIcEEES7_ESt6vectorIS8_SaIS8_EEEC1ERKSA_
FNA:1,0,_ZN9__gnu_cxx17__normal_iteratorIPKSt4pairIccESt6vectorIS2_SaIS2_EEEC1ERKS4_
FNA:1,0,_ZN9__gnu_cxx17__normal_iteratorIPKSt4pairIlSt6vectorINSt7__cxx119sub_matchINS0_IPcNS3_12basic_stringIcSt11char_traitsIcESaIcEEEEEEESaISC_EEES2_ISF_SaISF_EEEC1ERKSH_
FNA:1,0,_ZN9__gnu_cxx17__normal_iteratorIPKcSt6vectorIcSaIcEEEC1ERKS2_
FNA:1,56,_ZN9__gnu_cxx17__normal_iteratorIPNSt7__cxx1112basic_stringIcSt11char_traitsIcESaIcEEESt6vectorIS6_SaIS6_EEEC1ERKS7_
FNA:1,0,_ZN9__gnu_cxx17__normal_iteratorIPNSt7__cxx1112regex_traitsIcE10_RegexMaskESt6vectorIS4_SaIS4_EEEC1ERKS5_
FNA:1,0,_ZN9__gnu_cxx17__normal_iteratorIPNSt7__cxx119sub_matchINS0_IPcNS1_12basic_stringIcSt11char_traitsIcESaIcEEEEEEESt6vectorISA_SaISA_EEEC1ERKSB_
FNA:1,0,_ZN9__gnu_cxx17__normal_iteratorIPNSt8__detail6_StateIcEESt6vectorIS3_SaIS3_EEEC1ERKS4_
FNA:1,0,_ZN9__gnu_cxx17__normal_iteratorIPSt4pairINSt7__cxx1112basic_stringIcSt11char_traitsIcESaIcEEES7_ESt6vectorIS8_SaIS8_EEEC1ERKS9_
FNA:1,0,_ZN9__gnu_cxx17__normal_iteratorIPSt4pairIccESt6vectorIS2_SaIS2_EEEC1ERKS3_
FNA:1,0,_ZN9__gnu_cxx17__normal_iteratorIPSt4pairIlSt6vectorINSt7__cxx119sub_matchINS0_IPcNS3_12basic_stringIcSt11char_traitsIcESaIcEEEEEEESaISC_EEES2_ISF_SaISF_EEEC1ERKSG_
FNA:1,0,_ZN9__gnu_cxx17__normal_iteratorIPcSt6vectorIcSaIcEEEC1ERKS1_
FNA:1,0,_ZN9__gnu_cxx17__normal_iteratorIPmSt6vectorImSaImEEEC1ERKS1_
FNL:2,1074,1085
FNA:2,0,_ZN9__gnu_cxx17__normal_iteratorIPKcSt6vectorIcSaIcEEEC1IPcvEERKNS0_IT_S5_EE
FNL:3,1090,1091
FNA:3,0,_ZNK9__gnu_cxx17__normal_iteratorIPKNSt7__cxx1112basic_stringIcSt11char_traitsIcESaIcEEESt6vectorIS6_SaIS6_EEEdeEv
FNA:3,0,_ZNK9__gnu_cxx17__normal_iteratorIPKNSt7__cxx1112regex_traitsIcE10_RegexMaskESt6vectorIS4_SaIS4_EEEdeEv
FNA:3,0,_ZNK9__gnu_cxx17__normal_iteratorIPKNSt7__cxx119sub_matchINS0_IPcNS1_12basic_stringIcSt11char_traitsIcESaIcEEEEEEESt6vectorISA_SaISA_EEEdeEv
FNA:3,0,_ZNK9__gnu_cxx17__normal_iteratorIPKSt4pairINSt7__cxx1112basic_stringIcSt11char_traitsIcESaIcEEES7_ESt6vectorIS8_SaIS8_EEEdeEv
FNA:3,0,_ZNK9__gnu_cxx17__normal_iteratorIPKSt4pairIccESt6vectorIS2_SaIS2_EEEdeEv
FNA:3,128,_ZNK9__gnu_cxx17__normal_iteratorIPKcNSt7__cxx1112basic_stringIcSt11char_traitsIcESaIcEEEEdeEv
FNA:3,0,_ZNK9__gnu_cxx17__normal_iteratorIPKcSt6vectorIcSaIcEEEdeEv
FNA:3,0,_ZNK9__gnu_cxx17__normal_iteratorIPNSt7__cxx119sub_matchINS0_IPcNS1_12basic_stringIcSt11char_traitsIcESaIcEEEEEEESt6vectorISA_SaISA_EEEdeEv
FNA:3,0,_ZNK9__gnu_cxx17__normal_iteratorIPNSt8__detail6_StateIcEESt6vectorIS3_SaIS3_EEEdeEv
FNA:3,0,_ZNK9__gnu_cxx17__normal_iteratorIPSt4pairINSt7__cxx1112basic_stringIcSt11char_traitsIcESaIcEEES7_ESt6vectorIS8_SaIS8_EEEdeEv
FNA:3,0,_ZNK9__gnu_cxx17__normal_iteratorIPSt4pairIccESt6vectorIS2_SaIS2_EEEdeEv
FNA:3,0,_ZNK9__gnu_cxx17__normal_iteratorIPSt4pairIlSt6vectorINSt7__cxx119sub_matchINS0_IPcNS3_12basic_stringIcSt11char_traitsIcESaIcEEEEEEESaISC_EEES2_ISF_SaISF_EEEdeEv
FNA:3,55,_ZNK9__gnu_cxx17__normal_iteratorIPcNSt7__cxx1112basic_stringIcSt11char_traitsIcESaIcEEEEdeEv
FNA:3,0,_ZNK9__gnu_cxx17__normal_iteratorIPcSt6vectorIcSaIcEEEdeEv
FNA:3,0,_ZNK9__gnu_cxx17__normal_iteratorIPmSt6vectorImSaImEEEdeEv
FNL:4,1100,1104
FNA:4,0,_ZN9__gnu_cxx17__normal_iteratorIPKNSt7__cxx1112basic_stringIcSt11char_traitsIcESaIcEEESt6vectorIS6_SaIS6_EEEppEv
FNA:4,0,_ZN9__gnu_cxx17__normal_iteratorIPKNSt7__cxx1112regex_traitsIcE10_RegexMaskESt6vectorIS4_SaIS4_EEEppEv
FNA:4,0,_ZN9__gnu_cxx17__normal_iteratorIPKNSt7__cxx119sub_matchINS0_IPcNS1_12basic_stringIcSt11char_traitsIcESaIcEEEEEEESt6vectorISA_SaISA_EEEppEv
FNA:4,0,_ZN9__gnu_cxx17__normal_iteratorIPKSt4pairINSt7__cxx1112basic_stringIcSt11char_traitsIcESaIcEEES7_ESt6vectorIS8_SaIS8_EEEppEv
FNA:4,0,_ZN9__gnu_cxx17__normal_iteratorIPKSt4pairIccESt6vectorIS2_SaIS2_EEEppEv
FNA:4,0,_ZN9__gnu_cxx17__normal_iteratorIPKcNSt7__cxx1112basic_stringIcSt11char_traitsIcESaIcEEEEppEv
FNA:4,0,_ZN9__gnu_cxx17__normal_iteratorIPKcSt6vectorIcSaIcEEEppEv
FNA:4,0,_ZN9__gnu_cxx17__normal_iteratorIPNSt7__cxx119sub_matchINS0_IPcNS1_12basic_stringIcSt11char_traitsIcESaIcEEEEEEESt6vectorISA_SaISA_EEEppEv
FNA:4,0,_ZN9__gnu_cxx17__normal_iteratorIPNSt8__detail6_StateIcEESt6vectorIS3_SaIS3_EEEppEv
FNA:4,0,_ZN9__gnu_cxx17__normal_iteratorIPSt4pairIlSt6vectorINSt7__cxx119sub_matchINS0_IPcNS3_12basic_stringIcSt11char_traitsIcESaIcEEEEEEESaISC_EEES2_ISF_SaISF_EEEppEv
FNA:4,0,_ZN9__gnu_cxx17__normal_iteratorIPcNSt7__cxx1112basic_stringIcSt11char_traitsIcESaIcEEEEppEv
FNA:4,0,_ZN9__gnu_cxx17__normal_iteratorIPcSt6vectorIcSaIcEEEppEv
FNA:4,0,_ZN9__gnu_cxx17__normal_iteratorIPmSt6vectorImSaImEEEppEv
FNL:5,1114,1118
FNA:5,0,_ZN9__gnu_cxx17__normal_iteratorIPcNSt7__cxx1112basic_stringIcSt11char_traitsIcESaIcEEEEmmEv
FNA:5,0,_ZN9__gnu_cxx17__normal_iteratorIPcSt6vectorIcSaIcEEEmmEv
FNL:6,1133,1134
FNA:6,0,_ZN9__gnu_cxx17__normal_iteratorIPKcSt6vectorIcSaIcEEEpLEl
FNA:6,6,_ZN9__gnu_cxx17__normal_iteratorIPcNSt7__cxx1112basic_stringIcSt11char_traitsIcESaIcEEEEpLEl
FNL:7,1138,1139
FNA:7,0,_ZNK9__gnu_cxx17__normal_iteratorIPNSt7__cxx119sub_matchINS0_IPcNS1_12basic_stringIcSt11char_traitsIcESaIcEEEEEEESt6vectorISA_SaISA_EEEplEl
FNA:7,0,_ZNK9__gnu_cxx17__normal_iteratorIPcSt6vectorIcSaIcEEEplEl
FNL:8,1148,1149
FNA:8,0,_ZNK9__gnu_cxx17__normal_iteratorIPNSt8__detail6_StateIcEESt6vectorIS3_SaIS3_EEEmiEl
FNA:8,0,_ZNK9__gnu_cxx17__normal_iteratorIPSt4pairINSt7__cxx1112basic_stringIcSt11char_traitsIcESaIcEEES7_ESt6vectorIS8_SaIS8_EEEmiEl
FNA:8,0,_ZNK9__gnu_cxx17__normal_iteratorIPSt4pairIccESt6vectorIS2_SaIS2_EEEmiEl
FNA:8,0,_ZNK9__gnu_cxx17__normal_iteratorIPSt4pairIlSt6vectorINSt7__cxx119sub_matchINS0_IPcNS3_12basic_stringIcSt11char_traitsIcESaIcEEEEEEESaISC_EEES2_ISF_SaISF_EEEmiEl
FNA:8,0,_ZNK9__gnu_cxx17__normal_iteratorIPcSt6vectorIcSaIcEEEmiEl
FNA:8,0,_ZNK9__gnu_cxx17__normal_iteratorIPmSt6vectorImSaImEEEmiEl
FNL:9,1153,1154
FNA:9,58,_ZNK9__gnu_cxx17__normal_iteratorIPKNSt7__cxx1112basic_stringIcSt11char_traitsIcESaIcEEESt6vectorIS6_SaIS6_EEE4baseEv
FNA:9,0,_ZNK9__gnu_cxx17__normal_iteratorIPKNSt7__cxx1112regex_traitsIcE10_RegexMaskESt6vectorIS4_SaIS4_EEE4baseEv
FNA:9,0,_ZNK9__gnu_cxx17__normal_iteratorIPKNSt7__cxx119sub_matchINS0_IPcNS1_12basic_stringIcSt11char_traitsIcESaIcEEEEEEESt6vectorISA_SaISA_EEE4baseEv
FNA:9,0,_ZNK9__gnu_cxx17__normal_iteratorIPKSt4pairINSt7__cxx1112basic_stringIcSt11char_traitsIcESaIcEEES7_ESt6vectorIS8_SaIS8_EEE4baseEv
FNA:9,0,_ZNK9__gnu_cxx17__normal_iteratorIPKSt4pairIccESt6vectorIS2_SaIS2_EEE4baseEv
FNA:9,0,_ZNK9__gnu_cxx17__normal_iteratorIPKSt4pairIlSt6vectorINSt7__cxx119sub_matchINS0_IPcNS3_12basic_stringIcSt11char_traitsIcESaIcEEEEEEESaISC_EEES2_ISF_SaISF_EEE4baseEv
FNA:9,154,_ZNK9__gnu_cxx17__normal_iteratorIPKcNSt7__cxx1112basic_stringIcSt11char_traitsIcESaIcEEEE4baseEv
FNA:9,0,_ZNK9__gnu_cxx17__normal_iteratorIPKcSt6vectorIcSaIcEEE4baseEv
FNA:9,0,_ZNK9__gnu_cxx17__normal_iteratorIPNSt7__cxx1112basic_stringIcSt11char_traitsIcESaIcEEESt6vectorIS6_SaIS6_EEE4baseEv
FNA:9,0,_ZNK9__gnu_cxx17__normal_iteratorIPNSt7__cxx1112regex_traitsIcE10_RegexMaskESt6vectorIS4_SaIS4_EEE4baseEv
FNA:9,0,_ZNK9__gnu_cxx17__normal_iteratorIPNSt7__cxx119sub_matchINS0_IPcNS1_12basic_stringIcSt11char_traitsIcESaIcEEEEEEESt6vectorISA_SaISA_EEE4baseEv
FNA:9,0,_ZNK9__gnu_cxx17__normal_iteratorIPNSt8__detail6_StateIcEESt6vectorIS3_SaIS3_EEE4baseEv
FNA:9,0,_ZNK9__gnu_cxx17__normal_iteratorIPSt4pairINSt7__cxx1112basic_stringIcSt11char_traitsIcESaIcEEES7_ESt6vectorIS8_SaIS8_EEE4baseEv
FNA:9,0,_ZNK9__gnu_cxx17__normal_iteratorIPSt4pairIccESt6vectorIS2_SaIS2_EEE4baseEv
FNA:9,0,_ZNK9__gnu_cxx17__normal_iteratorIPSt4pairIlSt6vectorINSt7__cxx119sub_matchINS0_IPcNS3_12basic_stringIcSt11char_traitsIcESaIcEEEEEEESaISC_EEES2_ISF_SaISF_EEE4baseEv
FNA:9,66,_ZNK9__gnu_cxx17__normal_iteratorIPcNSt7__cxx1112basic_stringIcSt11char_traitsIcESaIcEEEE4baseEv
FNA:9,0,_ZNK9__gnu_cxx17__normal_iteratorIPcSt6vectorIcSaIcEEE4baseEv
FNA:9,0,_ZNK9__gnu_cxx17__normal_iteratorIPmSt6vectorImSaImEEE4baseEv
FNL:10,1216,1219
FNA:10,0,_ZN9__gnu_cxxeqIPKNSt7__cxx119sub_matchINS_17__normal_iteratorIPcNS1_12basic_stringIcSt11char_traitsIcESaIcEEEEEEESt6vectorISB_SaISB_EEEEbRKNS3_IT_T0_EESL_
FNA:10,0,_ZN9__gnu_cxxeqIPKSt4pairIlSt6vectorINSt7__cxx119sub_matchINS_17__normal_iteratorIPcNS3_12basic_stringIcSt11char_traitsIcESaIcEEEEEEESaISD_EEES2_ISG_SaISG_EEEEbRKNS5_IT_T0_EESP_
FNA:10,0,_ZN9__gnu_cxxeqIPcNSt7__cxx1112basic_stringIcSt11char_traitsIcESaIcEEEEEbRKNS_17__normal_iteratorIT_T0_EESD_
FNA:10,0,_ZN9__gnu_cxxeqIPcSt6vectorIcSaIcEEEEbRKNS_17__normal_iteratorIT_T0_EESA_
FNL:11,1232,1235
FNA:11,4,_ZN9__gnu_cxxneIPKNSt7__cxx1112basic_stringIcSt11char_traitsIcESaIcEEESt6vectorIS6_SaIS6_EEEEbRKNS_17__normal_iteratorIT_T0_EESH_
FNA:11,0,_ZN9__gnu_cxxneIPKNSt7__cxx1112regex_traitsIcE10_RegexMaskESt6vectorIS4_SaIS4_EEEEbRKNS_17__normal_iteratorIT_T0_EESF_
FNA:11,0,_ZN9__gnu_cxxneIPKNSt7__cxx119sub_matchINS_17__normal_iteratorIPcNS1_12basic_stringIcSt11char_traitsIcESaIcEEEEEEESt6vectorISB_SaISB_EEEEbRKNS3_IT_T0_EESL_
FNA:11,0,_ZN9__gnu_cxxneIPKSt4pairINSt7__cxx1112basic_stringIcSt11char_traitsIcESaIcEEES7_ESt6vectorIS8_SaIS8_EEEEbRKNS_17__normal_iteratorIT_T0_EESJ_
FNA:11,0,_ZN9__gnu_cxxneIPKSt4pairIccESt6vectorIS2_SaIS2_EEEEbRKNS_17__normal_iteratorIT_T0_EESD_
FNA:11,0,_ZN9__gnu_cxxneIPKcNSt7__cxx1112basic_stringIcSt11char_traitsIcESaIcEEEEEbRKNS_17__normal_iteratorIT_T0_EESE_
FNA:11,0,_ZN9__gnu_cxxneIPKcSt6vectorIcSaIcEEEEbRKNS_17__normal_iteratorIT_T0_EESB_
FNA:11,0,_ZN9__gnu_cxxneIPNSt7__cxx119sub_matchINS_17__normal_iteratorIPcNS1_12basic_stringIcSt11char_traitsIcESaIcEEEEEEESt6vectorISB_SaISB_EEEEbRKNS3_IT_T0_EESK_
FNA:11,0,_ZN9__gnu_cxxneIPNSt8__detail6_StateIcEESt6vectorIS3_SaIS3_EEEEbRKNS_17__normal_iteratorIT_T0_EESD_
FNA:11,0,_ZN9__gnu_cxxneIPSt4pairIlSt6vectorINSt7__cxx119sub_matchINS_17__normal_iteratorIPcNS3_12basic_stringIcSt11char_traitsIcESaIcEEEEEEESaISD_EEES2_ISG_SaISG_EEEEbRKNS5_IT_T0_EESO_
FNA:11,0,_ZN9__gnu_cxxneIPcNSt7__cxx1112basic_stringIcSt11char_traitsIcESaIcEEEEEbRKNS_17__normal_iteratorIT_T0_EESD_
FNA:11,0,_ZN9__gnu_cxxneIPcSt6vectorIcSaIcEEEEbRKNS_17__normal_iteratorIT_T0_EESA_
FNA:11,0,_ZN9__gnu_cxxneIPmSt6vectorImSaImEEEEbRKNS_17__normal_iteratorIT_T0_EESA_
FNL:12,1249,1252
FNA:12,0,_ZN9__gnu_cxxltIPcSt6vectorIcSaIcEEEEbRKNS_17__normal_iteratorIT_T0_EESA_
FNL:13,1325,1328
FNA:13,15,_ZN9__gnu_cxxmiIPKNSt7__cxx1112basic_stringIcSt11char_traitsIcESaIcEEESt6vectorIS6_SaIS6_EEEENS_17__normal_iteratorIT_T0_E15difference_typeERKSF_SI_
FNA:13,0,_ZN9__gnu_cxxmiIPKcSt6vectorIcSaIcEEEENS_17__normal_iteratorIT_T0_E15difference_typeERKS9_SC_
FNA:13,0,_ZN9__gnu_cxxmiIPNSt7__cxx1112basic_stringIcSt11char_traitsIcESaIcEEESt6vectorIS6_SaIS6_EEEENS_17__normal_iteratorIT_T0_E15difference_typeERKSE_SH_
FNA:13,0,_ZN9__gnu_cxxmiIPNSt7__cxx1112regex_traitsIcE10_RegexMaskESt6vectorIS4_SaIS4_EEEENS_17__normal_iteratorIT_T0_E15difference_typeERKSC_SF_
FNA:13,0,_ZN9__gnu_cxxmiIPNSt8__detail6_StateIcEESt6vectorIS3_SaIS3_EEEENS_17__normal_iteratorIT_T0_E15difference_typeERKSB_SE_
FNA:13,0,_ZN9__gnu_cxxmiIPSt4pairINSt7__cxx1112basic_stringIcSt11char_traitsIcESaIcEEES7_ESt6vectorIS8_SaIS8_EEEENS_17__normal_iteratorIT_T0_E15difference_typeERKSG_SJ_
FNA:13,0,_ZN9__gnu_cxxmiIPSt4pairIccESt6vectorIS2_SaIS2_EEEENS_17__normal_iteratorIT_T0_E15difference_typeERKSA_SD_
FNA:13,0,_ZN9__gnu_cxxmiIPSt4pairIlSt6vectorINSt7__cxx119sub_matchINS_17__normal_iteratorIPcNS3_12basic_stringIcSt11char_traitsIcESaIcEEEEEEESaISD_EEES2_ISG_SaISG_EEEENS5_IT_T0_E15difference_typeERKSM_SP_
FNA:13,0,_ZN9__gnu_cxxmiIPcNSt7__cxx1112basic_stringIcSt11char_traitsIcESaIcEEEEENS_17__normal_iteratorIT_T0_E15difference_typeERKSB_SE_
FNA:13,0,_ZN9__gnu_cxxmiIPcSt6vectorIcSaIcEEEENS_17__normal_iteratorIT_T0_E15difference_typeERKS8_SB_
FNA:13,0,_ZN9__gnu_cxxmiIPmSt6vectorImSaImEEEENS_17__normal_iteratorIT_T0_E15difference_typeERKS8_SB_
FNL:14,1348,1350
FNA:14,0,_ZSt12__niter_baseIPKNSt7__cxx119sub_matchIN9__gnu_cxx17__normal_iteratorIPcNS0_12basic_stringIcSt11char_traitsIcESaIcEEEEEEESt6vectorISB_SaISB_EEET_NS3_ISH_T0_EE
FNA:14,0,_ZSt12__niter_baseIPKcSt6vectorIcSaIcEEET_N9__gnu_cxx17__normal_iteratorIS5_T0_EE
FNA:14,0,_ZSt12__niter_baseIPNSt7__cxx119sub_matchIN9__gnu_cxx17__normal_iteratorIPcNS0_12basic_stringIcSt11char_traitsIcESaIcEEEEEEESt6vectorISB_SaISB_EEET_NS3_ISG_T0_EE
FNA:14,0,_ZSt12__niter_baseIPcNSt7__cxx1112basic_stringIcSt11char_traitsIcESaIcEEEET_N9__gnu_cxx17__normal_iteratorIS7_T0_EE
FNA:14,0,_ZSt12__niter_baseIPcSt6vectorIcSaIcEEET_N9__gnu_cxx17__normal_iteratorIS4_T0_EE
FNL:15,704,705
FNA:15,0,_ZNSt20back_insert_iteratorINSt7__cxx1112basic_stringIcSt11char_traitsIcESaIcEEEEC1ERS5_
FNL:16,728,732
FNA:16,0,_ZNSt20back_insert_iteratorINSt7__cxx1112basic_stringIcSt11char_traitsIcESaIcEEEEaSERKc
FNL:17,736,740
FNA:17,0,_ZNSt20back_insert_iteratorINSt7__cxx1112basic_stringIcSt11char_traitsIcESaIcEEEEaSEOc
FNL:18,746,747
FNA:18,0,_ZNSt20back_insert_iteratorINSt7__cxx1112basic_stringIcSt11char_traitsIcESaIcEEEEdeEv
FNL:19,752,753
FNA:19,0,_ZNSt20back_insert_iteratorINSt7__cxx1112basic_stringIcSt11char_traitsIcESaIcEEEEppEv
FNL:20,758,759
FNA:20,0,_ZNSt20back_insert_iteratorINSt7__cxx1112basic_stringIcSt11char_traitsIcESaIcEEEEppEi
FNL:21,776,777
FNA:21,0,_ZSt13back_inserterINSt7__cxx1112basic_stringIcSt11char_traitsIcESaIcEEEESt20back_insert_iteratorIT_ERS7_
FNF:22
FNH:6
DA:704,0
DA:705,0
DA:728,0
DA:730,0
DA:731,0
DA:736,0
DA:738,0
DA:739,0
DA:746,0
DA:747,0
DA:752,0
DA:753,0
DA:758,0
DA:759,0
DA:776,0
DA:777,0
DA:1063,0
DA:1064,0
DA:1067,80
DA:1068,80
DA:1074,0
DA:1085,0
DA:1090,183
DA:1091,183
DA:1100,0
DA:1102,0
DA:1103,0
DA:1114,0
DA:1116,0
DA:1117,0
DA:1133,6
DA:1134,6
DA:1138,0
DA:1139,0
DA:1148,0
DA:1149,0
DA:1153,278
DA:1154,278
DA:1216,0
DA:1219,0
DA:1232,4
DA:1235,4
DA:1249,0
DA:1252,0
DA:1325,15
DA:1328,15
DA:1348,0
DA:1350,0
LF:48
LH:12
end_of_record
TN:
SF:/opt/local/include/gcc14/c++/bits/stl_iterator_base_funcs.h
FNL:0,184,196
FNA:0,0,_ZSt9__advanceIN9__gnu_cxx17__normal_iteratorIPKcSt6vectorIcSaIcEEEElEvRT_T0_St26random_access_iterator_tag
FNA:0,0,_ZSt9__advanceIN9__gnu_cxx17__normal_iteratorIPcNSt7__cxx1112basic_stringIcSt11char_traitsIcESaIcEEEEElEvRT_T0_St26random_access_iterator_tag
FNF:1
FNH:0
DA:106,78
DA:151,188
DA:152,188
DA:184,0
DA:195,0
DA:196,0
DA:223,0
DA:224,0
DA:225,0
DA:250,0
DA:251,0
LF:11
LH:3
end_of_record
TN:
SF:/opt/local/include/gcc14/c++/bits/stl_iterator_base_types.h
FNF:0
FNH:0
DA:240,94
LF:1
LH:1
end_of_record
TN:
SF:/opt/local/include/gcc14/c++/bits/stl_list.h
FNL:0,1012,1013
FNA:0,0,_ZNKSt7__cxx114listINS_12basic_stringIcSt11char_traitsIcESaIcEEESaIS5_EE13get_allocatorEv
FNL:1,1022,1023
FNA:1,0,_ZNSt7__cxx114listINS_12basic_stringIcSt11char_traitsIcESaIcEEESaIS5_EE5beginEv
FNA:1,0,_ZNSt7__cxx114listIcSaIcEE5beginEv
FNL:2,1032,1033
FNA:2,0,_ZNKSt7__cxx114listINS_12basic_stringIcSt11char_traitsIcESaIcEEESaIS5_EE5beginEv
FNL:3,1042,1043
FNA:3,0,_ZNSt7__cxx114listINS_12basic_stringIcSt11char_traitsIcESaIcEEESaIS5_EE3endEv
FNA:3,0,_ZNSt7__cxx114listIcSaIcEE3endEv
FNL:4,1052,1053
FNA:4,0,_ZNKSt7__cxx114listINS_12basic_stringIcSt11char_traitsIcESaIcEEESaIS5_EE3endEv
FNL:5,110,111
FNA:5,0,_ZNSt8__detail17_List_node_headerC1Ev
FNL:6,1143,1144
FNA:6,0,_ZNKSt7__cxx114listINS_12basic_stringIcSt11char_traitsIcESaIcEEESaIS5_EE5emptyEv
FNL:7,1149,1150
FNA:7,0,_ZNKSt7__cxx114listINS_12basic_stringIcSt11char_traitsIcESaIcEEESaIS5_EE4sizeEv
FNL:8,1223,1228
FNA:8,0,_ZNSt7__cxx114listINS_12basic_stringIcSt11char_traitsIcESaIcEEESaIS5_EE4backEv
FNL:9,1305,1306
FNA:9,0,_ZNSt7__cxx114listINS_12basic_stringIcSt11char_traitsIcESaIcEEESaIS5_EE9push_backERKS5_
FNA:9,0,_ZNSt7__cxx114listIcSaIcEE9push_backERKc
FNL:10,1319,1325
FNA:10,0,_ZNSt7__cxx114listINS_12basic_stringIcSt11char_traitsIcESaIcEEESaIS5_EE12emplace_backIJRKS5_EEERS5_DpOT_
FNL:11,150,156
FNA:11,0,_ZNSt8__detail17_List_node_header7_M_initEv
FNL:12,1550,1558
FNA:12,0,_ZNSt7__cxx114listINS_12basic_stringIcSt11char_traitsIcESaIcEEESaIS5_EE5eraseESt20_List_const_iteratorIS5_ES9_
FNL:13,1592,1596
FNA:13,0,_ZNSt7__cxx114listINS_12basic_stringIcSt11char_traitsIcESaIcEEESaIS5_EE5clearEv
FNA:13,0,_ZNSt7__cxx114listIcSaIcEE5clearEv
FNL:14,1612,1627
FNA:14,0,_ZNSt7__cxx114listINS_12basic_stringIcSt11char_traitsIcESaIcEEESaIS5_EE6spliceESt20_List_const_iteratorIS5_EOS7_
FNL:15,1631,1632
FNA:15,0,_ZNSt7__cxx114listINS_12basic_stringIcSt11char_traitsIcESaIcEEESaIS5_EE6spliceESt20_List_const_iteratorIS5_ERS7_
FNL:16,1928,1937
FNA:16,0,_ZNSt7__cxx114listINS_12basic_stringIcSt11char_traitsIcESaIcEEESaIS5_EE22_M_initialize_dispatchIPKS5_EEvT_SB_St12__false_type
FNA:16,0,_ZNSt7__cxx114listINS_12basic_stringIcSt11char_traitsIcESaIcEEESaIS5_EE22_M_initialize_dispatchISt20_List_const_iteratorIS5_EEEvT_SB_St12__false_type
FNL:17,1987,1988
FNA:17,0,_ZNSt7__cxx114listINS_12basic_stringIcSt11char_traitsIcESaIcEEESaIS5_EE11_M_transferESt14_List_iteratorIS5_ES9_S9_
FNL:18,2002,2007
FNA:18,0,_ZNSt7__cxx114listINS_12basic_stringIcSt11char_traitsIcESaIcEEESaIS5_EE9_M_insertIJRKS5_EEEvSt14_List_iteratorIS5_EDpOT_
FNA:18,0,_ZNSt7__cxx114listIcSaIcEE9_M_insertIJRKcEEEvSt14_List_iteratorIcEDpOT_
FNL:19,2012,2024
FNA:19,0,_ZNSt7__cxx114listINS_12basic_stringIcSt11char_traitsIcESaIcEEESaIS5_EE8_M_eraseESt14_List_iteratorIS5_E
FNL:20,2028,2032
FNA:20,0,_ZNSt7__cxx114listINS_12basic_stringIcSt11char_traitsIcESaIcEEESaIS5_EE25_M_check_equal_allocatorsERKS7_
FNL:21,2226,2232
FNA:21,0,_ZSt10__distanceINSt7__cxx1112basic_stringIcSt11char_traitsIcESaIcEEEElSt14_List_iteratorIT_ES8_St18input_iterator_tag
FNL:22,2236,2254
FNA:22,0,_ZSt10__distanceINSt7__cxx1112basic_stringIcSt11char_traitsIcESaIcEEEElSt20_List_const_iteratorIT_ES8_St18input_iterator_tag
FNL:23,238,238
FNA:23,0,_ZNSt10_List_nodeINSt7__cxx1112basic_stringIcSt11char_traitsIcESaIcEEEE9_M_valptrEv
FNA:23,0,_ZNSt10_List_nodeIcE9_M_valptrEv
FNL:24,239,239
FNA:24,0,_ZNKSt10_List_nodeINSt7__cxx1112basic_stringIcSt11char_traitsIcESaIcEEEE9_M_valptrEv
FNL:25,268,269
FNA:25,0,_ZNSt14_List_iteratorINSt7__cxx1112basic_stringIcSt11char_traitsIcESaIcEEEEC1EPNSt8__detail15_List_node_baseE
FNA:25,0,_ZNSt14_List_iteratorIcEC1EPNSt8__detail15_List_node_baseE
FNL:26,278,279
FNA:26,0,_ZNKSt14_List_iteratorINSt7__cxx1112basic_stringIcSt11char_traitsIcESaIcEEEEdeEv
FNA:26,0,_ZNKSt14_List_iteratorIcEdeEv
FNL:27,283,284
FNA:27,0,_ZNKSt14_List_iteratorINSt7__cxx1112basic_stringIcSt11char_traitsIcESaIcEEEEptEv
FNL:28,287,291
FNA:28,0,_ZNSt14_List_iteratorINSt7__cxx1112basic_stringIcSt11char_traitsIcESaIcEEEEppEv
FNA:28,0,_ZNSt14_List_iteratorIcEppEv
FNL:29,294,299
FNA:29,0,_ZNSt14_List_iteratorINSt7__cxx1112basic_stringIcSt11char_traitsIcESaIcEEEEppEi
FNL:30,302,306
FNA:30,0,_ZNSt14_List_iteratorINSt7__cxx1112basic_stringIcSt11char_traitsIcESaIcEEEEmmEv
FNL:31,324,325
FNA:31,0,_ZStneRKSt14_List_iteratorINSt7__cxx1112basic_stringIcSt11char_traitsIcESaIcEEEES8_
FNA:31,0,_ZStneRKSt14_List_iteratorIcES2_
FNL:32,354,356
FNA:32,0,_ZNSt20_List_const_iteratorINSt7__cxx1112basic_stringIcSt11char_traitsIcESaIcEEEEC1EPKNSt8__detail15_List_node_baseE
FNL:33,358,359
FNA:33,0,_ZNSt20_List_const_iteratorINSt7__cxx1112basic_stringIcSt11char_traitsIcESaIcEEEEC1ERKSt14_List_iteratorIS5_E
FNL:34,362,363
FNA:34,0,_ZNKSt20_List_const_iteratorINSt7__cxx1112basic_stringIcSt11char_traitsIcESaIcEEEE13_M_const_castEv
FNL:35,368,369
FNA:35,0,_ZNKSt20_List_const_iteratorINSt7__cxx1112basic_stringIcSt11char_traitsIcESaIcEEEEdeEv
FNL:36,377,381
FNA:36,0,_ZNSt20_List_const_iteratorINSt7__cxx1112basic_stringIcSt11char_traitsIcESaIcEEEEppEv
FNL:37,408,409
FNA:37,0,_ZSteqRKSt20_List_const_iteratorINSt7__cxx1112basic_stringIcSt11char_traitsIcESaIcEEEES8_
FNL:38,414,415
FNA:38,0,_ZStneRKSt20_List_const_iteratorINSt7__cxx1112basic_stringIcSt11char_traitsIcESaIcEEEES8_
FNL:39,455,458
FNA:39,0,_ZNSt7__cxx1110_List_baseINS_12basic_stringIcSt11char_traitsIcESaIcEEESaIS5_EE10_List_implC1Ev
FNA:39,0,_ZNSt7__cxx1110_List_baseIcSaIcEE10_List_implC1Ev
FNL:40,471,473
FNA:40,0,_ZNSt7__cxx1110_List_baseINS_12basic_stringIcSt11char_traitsIcESaIcEEESaIS5_EE10_List_implC1EOSaISt10_List_nodeIS5_EE
FNL:41,480,480
FNA:41,0,_ZNKSt7__cxx1110_List_baseINS_12basic_stringIcSt11char_traitsIcESaIcEEESaIS5_EE11_M_get_sizeEv
FNL:42,482,482
FNA:42,0,_ZNSt7__cxx1110_List_baseINS_12basic_stringIcSt11char_traitsIcESaIcEEESaIS5_EE11_M_set_sizeEm
FNL:43,484,484
FNA:43,0,_ZNSt7__cxx1110_List_baseINS_12basic_stringIcSt11char_traitsIcESaIcEEESaIS5_EE11_M_inc_sizeEm
FNA:43,0,_ZNSt7__cxx1110_List_baseIcSaIcEE11_M_inc_sizeEm
FNL:44,486,486
FNA:44,0,_ZNSt7__cxx1110_List_baseINS_12basic_stringIcSt11char_traitsIcESaIcEEESaIS5_EE11_M_dec_sizeEm
FNL:45,517,518
FNA:45,0,_ZNSt7__cxx1110_List_baseINS_12basic_stringIcSt11char_traitsIcESaIcEEESaIS5_EE11_M_get_nodeEv
FNA:45,0,_ZNSt7__cxx1110_List_baseIcSaIcEE11_M_get_nodeEv
FNL:46,521,522
FNA:46,0,_ZNSt7__cxx1110_List_baseINS_12basic_stringIcSt11char_traitsIcESaIcEEESaIS5_EE11_M_put_nodeEPSt10_List_nodeIS5_E
FNA:46,0,_ZNSt7__cxx1110_List_baseIcSaIcEE11_M_put_nodeEPSt10_List_nodeIcE
FNL:47,528,529
FNA:47,0,_ZNSt7__cxx1110_List_baseINS_12basic_stringIcSt11char_traitsIcESaIcEEESaIS5_EE21_M_get_Node_allocatorEv
FNA:47,0,_ZNSt7__cxx1110_List_baseIcSaIcEE21_M_get_Node_allocatorEv
FNL:48,532,533
FNA:48,0,_ZNKSt7__cxx1110_List_baseINS_12basic_stringIcSt11char_traitsIcESaIcEEESaIS5_EE21_M_get_Node_allocatorEv
FNL:49,536,536
FNA:49,0,_ZNSt7__cxx1110_List_baseINS_12basic_stringIcSt11char_traitsIcESaIcEEESaIS5_EEC2Ev
FNA:49,0,_ZNSt7__cxx1110_List_baseIcSaIcEEC2Ev
FNL:50,564,566
FNA:50,0,_ZNSt7__cxx1110_List_baseINS_12basic_stringIcSt11char_traitsIcESaIcEEESaIS5_EEC2EOSaISt10_List_nodeIS5_EE
FNL:51,574,575
FNA:51,0,_ZNSt7__cxx1110_List_baseINS_12basic_stringIcSt11char_traitsIcESaIcEEESaIS5_EED2Ev
FNA:51,0,_ZNSt7__cxx1110_List_baseIcSaIcEED2Ev
FNL:52,581,582
FNA:52,0,_ZNSt7__cxx1110_List_baseINS_12basic_stringIcSt11char_traitsIcESaIcEEESaIS5_EE7_M_initEv
FNA:52,0,_ZNSt7__cxx1110_List_baseIcSaIcEE7_M_initEv
FNL:53,708,717
FNA:53,0,_ZNSt7__cxx114listINS_12basic_stringIcSt11char_traitsIcESaIcEEESaIS5_EE14_M_create_nodeIJRKS5_EEEPSt10_List_nodeIS5_EDpOT_
FNA:53,0,_ZNSt7__cxx114listIcSaIcEE14_M_create_nodeIJRKcEEEPSt10_List_nodeIcEDpOT_
FNL:54,727,728
FNA:54,0,_ZNKSt7__cxx114listINS_12basic_stringIcSt11char_traitsIcESaIcEEESaIS5_EE13_M_node_countEv
FNL:55,749,749
FNA:55,0,_ZNSt7__cxx114listINS_12basic_stringIcSt11char_traitsIcESaIcEEESaIS5_EEC1Ev
FNA:55,0,_ZNSt7__cxx114listIcSaIcEEC1Ev
FNL:56,811,814
FNA:56,0,_ZNSt7__cxx114listINS_12basic_stringIcSt11char_traitsIcESaIcEEESaIS5_EEC1ERKS7_
FNL:57,834,837
FNA:57,0,_ZNSt7__cxx114listINS_12basic_stringIcSt11char_traitsIcESaIcEEESaIS5_EEC1ESt16initializer_listIS5_ERKS6_
FNL:58,879,882
FNA:58,0,_ZNSt7__cxx114listINS_12basic_stringIcSt11char_traitsIcESaIcEEESaIS5_EEC1ISt20_List_const_iteratorIS5_EvEET_SB_RKS6_
FNL:59,903,903
FNA:59,0,_ZNSt7__cxx114listINS_12basic_stringIcSt11char_traitsIcESaIcEEESaIS5_EED1Ev
FNA:59,0,_ZNSt7__cxx114listIcSaIcEED1Ev
FNF:60
FNH:0
DA:110,0
DA:111,0
DA:150,0
DA:152,0
DA:154,0
DA:156,0
DA:238,0
DA:239,0
DA:268,0
DA:269,0
DA:278,0
DA:279,0
DA:283,0
DA:284,0
DA:287,0
DA:289,0
DA:290,0
DA:294,0
DA:296,0
DA:297,0
DA:298,0
DA:302,0
DA:304,0
DA:305,0
DA:324,0
DA:325,0
DA:354,0
DA:356,0
DA:358,0
DA:359,0
DA:362,0
DA:363,0
DA:368,0
DA:369,0
DA:377,0
DA:379,0
DA:380,0
DA:408,0
DA:409,0
DA:414,0
DA:415,0
DA:455,0
DA:457,0
DA:458,0
DA:471,0
DA:472,0
DA:473,0
DA:480,0
DA:482,0
DA:484,0
DA:486,0
DA:517,0
DA:518,0
DA:521,0
DA:522,0
DA:528,0
DA:529,0
DA:532,0
DA:533,0
DA:536,0
DA:564,0
DA:565,0
DA:566,0
DA:574,0
DA:575,0
DA:581,0
DA:582,0
DA:708,0
DA:710,0
DA:711,0
DA:712,0
DA:713,0
DA:715,0
DA:716,0
DA:717,0
DA:727,0
DA:728,0
DA:749,0
DA:811,0
DA:813,0
DA:814,0
DA:834,0
DA:836,0
DA:837,0
DA:879,0
DA:881,0
DA:882,0
DA:903,0
DA:1012,0
DA:1013,0
DA:1022,0
DA:1023,0
DA:1032,0
DA:1033,0
DA:1042,0
DA:1043,0
DA:1052,0
DA:1053,0
DA:1143,0
DA:1144,0
DA:1149,0
DA:1150,0
DA:1223,0
DA:1225,0
DA:1226,0
DA:1227,0
DA:1305,0
DA:1306,0
DA:1319,0
DA:1321,0
DA:1323,0
DA:1550,0
DA:1555,0
DA:1556,0
DA:1557,0
DA:1592,0
DA:1594,0
DA:1595,0
DA:1596,0
DA:1612,0
DA:1617,0
DA:1619,0
DA:1621,0
DA:1624,0
DA:1625,0
DA:1627,0
DA:1631,0
DA:1632,0
DA:1928,0
DA:1931,0
DA:1933,0
DA:1937,0
DA:1987,0
DA:1988,0
DA:2002,0
DA:2004,0
DA:2005,0
DA:2006,0
DA:2007,0
DA:2012,0
DA:2014,0
DA:2015,0
DA:2016,0
DA:2018,0
DA:2023,0
DA:2024,0
DA:2028,0
DA:2030,0
DA:2031,0
DA:2032,0
DA:2226,0
DA:2231,0
DA:2236,0
DA:2241,0
DA:2242,0
DA:2243,0
DA:2247,0
DA:2248,0
DA:2250,0
DA:2251,0
DA:2253,0
LF:161
LH:0
end_of_record
TN:
SF:/opt/local/include/gcc14/c++/bits/stl_map.h
FNL:0,1191,1192
FNA:0,0,_ZNKSt3mapIllSt4lessIlESaISt4pairIKllEEE8key_compEv
FNL:1,1218,1219
FNA:1,0,_ZNSt3mapIllSt4lessIlESaISt4pairIKllEEE4findERS3_
FNL:2,1264,1265
FNA:2,0,_ZNKSt3mapIllSt4lessIlESaISt4pairIKllEEE5countERS3_
FNL:3,1307,1308
FNA:3,0,_ZNSt3mapIllSt4lessIlESaISt4pairIKllEEE11lower_boundERS3_
FNL:4,197,197
FNA:4,0,_ZNSt3mapIllSt4lessIlESaISt4pairIKllEEEC1Ev
FNL:5,314,314
FNA:5,0,_ZNSt3mapIllSt4lessIlESaISt4pairIKllEEED1Ev
FNL:6,368,369
FNA:6,0,_ZNSt3mapIllSt4lessIlESaISt4pairIKllEEE5beginEv
FNL:7,386,387
FNA:7,0,_ZNSt3mapIllSt4lessIlESaISt4pairIKllEEE3endEv
FNL:8,504,520
FNA:8,0,_ZNSt3mapIllSt4lessIlESaISt4pairIKllEEEixERS3_
FNF:9
FNH:0
DA:197,0
DA:314,0
DA:368,0
DA:369,0
DA:386,0
DA:387,0
DA:504,0
DA:509,0
DA:511,0
DA:513,0
DA:514,0
DA:515,0
DA:519,0
DA:1191,0
DA:1192,0
DA:1218,0
DA:1219,0
DA:1264,0
DA:1265,0
DA:1307,0
DA:1308,0
LF:21
LH:0
end_of_record
TN:
SF:/opt/local/include/gcc14/c++/bits/stl_pair.h
FNL:0,1132,1138
FNA:0,0,_ZSt9make_pairINSt7__cxx1112basic_stringIcSt11char_traitsIcESaIcEEES5_ESt4pairINSt25__strip_reference_wrapperINSt5decayIT_E4typeEE6__typeENS7_INS8_IT0_E4typeEE6__typeEEOS9_OSE_
FNA:0,0,_ZSt9make_pairIccESt4pairINSt25__strip_reference_wrapperINSt5decayIT_E4typeEE6__typeENS1_INS2_IT0_E4typeEE6__typeEEOS3_OS8_
FNL:1,294,294
FNA:1,0,_ZNSt4pairIKNSt7__cxx1112basic_stringIcSt11char_traitsIcESaIcEEENS0_4listIS5_SaIS5_EEEEC1ERKSA_
FNA:1,0,_ZNSt4pairIKNSt7__cxx1112basic_stringIcSt11char_traitsIcESaIcEEEbEC1ERKS7_
FNA:1,0,_ZNSt4pairINSt7__cxx1112basic_stringIcSt11char_traitsIcESaIcEEES5_EC1ERKS6_
FNL:2,295,295
FNA:2,0,_ZNSt4pairINSt7__cxx1112basic_stringIcSt11char_traitsIcESaIcEEES5_EC1EOS6_
FNA:2,0,_ZNSt4pairIlSt6vectorINSt7__cxx119sub_matchIN9__gnu_cxx17__normal_iteratorIPcNS1_12basic_stringIcSt11char_traitsIcESaIcEEEEEEESaISC_EEEC1EOSF_
FNL:3,725,726
FNA:3,0,_ZNSt4pairIN9__gnu_cxx17__normal_iteratorIPcNSt7__cxx1112basic_stringIcSt11char_traitsIcESaIcEEEEES9_EC2IS9_S9_Lb1EEEv
FNA:3,0,_ZNSt4pairIN9__gnu_cxx17__normal_iteratorIPcNSt7__cxx1112basic_stringIcSt11char_traitsIcESaIcEEEEEiEC1IS9_iLb1EEEv
FNL:4,752,753
FNA:4,0,_ZNSt4pairIPSt18_Rb_tree_node_baseS1_EC1IS1_S1_Lb1EEERKS1_S5_
FNL:5,881,883
FNA:5,0,_ZNSt4pairINSt7__cxx1112basic_stringIcSt11char_traitsIcESaIcEEES5_EC1IS5_S5_Lb1EEEOT_OT0_
FNA:5,0,_ZNSt4pairIPSt18_Rb_tree_node_baseS1_EC1IRPSt13_Rb_tree_nodeIS_IKllEERS1_Lb1EEEOT_OT0_
FNA:5,0,_ZNSt4pairIPSt18_Rb_tree_node_baseS1_EC1IRS1_S4_Lb1EEEOT_OT0_
FNA:5,0,_ZNSt4pairIccEC1IccLb1EEEOT_OT0_
FNA:5,0,_ZNSt4pairIlSt6vectorINSt7__cxx119sub_matchIN9__gnu_cxx17__normal_iteratorIPcNS1_12basic_stringIcSt11char_traitsIcESaIcEEEEEEESaISC_EEEC1IRlRKSE_Lb1EEEOT_OT0_
FNL:6,921,928
FNA:6,0,_ZNSt4pairIN9__gnu_cxx17__normal_iteratorIPcNSt7__cxx1112basic_stringIcSt11char_traitsIcESaIcEEEEES9_EaSERKSA_
FNA:6,0,_ZNSt4pairIN9__gnu_cxx17__normal_iteratorIPcNSt7__cxx1112basic_stringIcSt11char_traitsIcESaIcEEEEEiEaSERKSA_
FNF:7
FNH:0
DA:294,0
DA:295,0
DA:725,0
DA:726,0
DA:752,0
DA:753,0
DA:881,0
DA:882,0
DA:883,0
DA:921,0
DA:925,0
DA:926,0
DA:927,0
DA:1132,0
DA:1137,0
LF:15
LH:0
end_of_record
TN:
SF:/opt/local/include/gcc14/c++/bits/stl_stack.h
FNL:0,162,163
FNA:0,0,_ZNSt5stackINSt8__detail9_StateSeqINSt7__cxx1112regex_traitsIcEEEESt5dequeIS5_SaIS5_EEEC1IS8_vEEv
FNA:0,0,_ZNSt5stackIlSt5dequeIlSaIlEEEC1IS2_vEEv
FNL:1,215,216
FNA:1,0,_ZNKSt5stackINSt8__detail9_StateSeqINSt7__cxx1112regex_traitsIcEEEESt5dequeIS5_SaIS5_EEE5emptyEv
FNA:1,0,_ZNKSt5stackIlSt5dequeIlSaIlEEE5emptyEv
FNL:2,230,234
FNA:2,0,_ZNSt5stackINSt8__detail9_StateSeqINSt7__cxx1112regex_traitsIcEEEESt5dequeIS5_SaIS5_EEE3topEv
FNA:2,0,_ZNSt5stackIlSt5dequeIlSaIlEEE3topEv
FNL:3,258,259
FNA:3,0,_ZNSt5stackINSt8__detail9_StateSeqINSt7__cxx1112regex_traitsIcEEEESt5dequeIS5_SaIS5_EEE4pushERKS5_
FNA:3,0,_ZNSt5stackIlSt5dequeIlSaIlEEE4pushERKl
FNL:4,263,264
FNA:4,0,_ZNSt5stackINSt8__detail9_StateSeqINSt7__cxx1112regex_traitsIcEEEESt5dequeIS5_SaIS5_EEE4pushEOS5_
FNL:5,291,295
FNA:5,0,_ZNSt5stackINSt8__detail9_StateSeqINSt7__cxx1112regex_traitsIcEEEESt5dequeIS5_SaIS5_EEE3popEv
FNA:5,0,_ZNSt5stackIlSt5dequeIlSaIlEEE3popEv
FNF:6
FNH:0
DA:162,0
DA:163,0
DA:215,0
DA:216,0
DA:230,0
DA:233,0
DA:258,0
DA:259,0
DA:263,0
DA:264,0
DA:291,0
DA:294,0
DA:295,0
LF:13
LH:0
end_of_record
TN:
SF:/opt/local/include/gcc14/c++/bits/stl_tree.h
FNL:0,1001,1002
FNA:0,0,_ZNSt8_Rb_treeIlSt4pairIKllESt10_Select1stIS2_ESt4lessIlESaIS2_EE3endEv
FNL:1,1005,1006
FNA:1,0,_ZNKSt8_Rb_treeIlSt4pairIKllESt10_Select1stIS2_ESt4lessIlESaIS2_EE3endEv
FNL:2,1029,1030
FNA:2,0,_ZNKSt8_Rb_treeIlSt4pairIKllESt10_Select1stIS2_ESt4lessIlESaIS2_EE4sizeEv
FNL:3,1266,1267
FNA:3,0,_ZNSt8_Rb_treeIlSt4pairIKllESt10_Select1stIS2_ESt4lessIlESaIS2_EE11lower_boundERS1_
FNL:4,142,146
FNA:4,0,_ZNSt20_Rb_tree_key_compareISt4lessIlEEC2Ev
FNL:5,1631,1634
FNA:5,0,_ZNSt8_Rb_treeIlSt4pairIKllESt10_Select1stIS2_ESt4lessIlESaIS2_EE10_Auto_nodeC1IJRKSt21piecewise_construct_tSt5tupleIJRS1_EESE_IJEEEEERS8_DpOT_
FNL:6,1636,1640
FNA:6,0,_ZNSt8_Rb_treeIlSt4pairIKllESt10_Select1stIS2_ESt4lessIlESaIS2_EE10_Auto_nodeD1Ev
FNL:7,1647,1648
FNA:7,0,_ZNKSt8_Rb_treeIlSt4pairIKllESt10_Select1stIS2_ESt4lessIlESaIS2_EE10_Auto_node6_M_keyEv
FNL:8,1651,1656
FNA:8,0,_ZNSt8_Rb_treeIlSt4pairIKllESt10_Select1stIS2_ESt4lessIlESaIS2_EE10_Auto_node9_M_insertES0_IPSt18_Rb_tree_node_baseSB_E
FNL:9,169,173
FNA:9,2,_ZNSt15_Rb_tree_headerC2Ev
FNL:10,1926,1937
FNA:10,0,_ZNSt8_Rb_treeIlSt4pairIKllESt10_Select1stIS2_ESt4lessIlESaIS2_EE8_M_eraseEPSt13_Rb_tree_nodeIS2_E
FNL:11,1943,1953
FNA:11,0,_ZNSt8_Rb_treeIlSt4pairIKllESt10_Select1stIS2_ESt4lessIlESaIS2_EE14_M_lower_boundEPSt13_Rb_tree_nodeIS2_EPSt18_Rb_tree_node_baseRS1_
FNL:12,1959,1969
FNA:12,0,_ZNKSt8_Rb_treeIlSt4pairIKllESt10_Select1stIS2_ESt4lessIlESaIS2_EE14_M_lower_boundEPKSt13_Rb_tree_nodeIS2_EPKSt18_Rb_tree_node_baseRS1_
FNL:13,202,208
FNA:13,2,_ZNSt15_Rb_tree_header8_M_resetEv
FNL:14,2104,2128
FNA:14,0,_ZNSt8_Rb_treeIlSt4pairIKllESt10_Select1stIS2_ESt4lessIlESaIS2_EE24_M_get_insert_unique_posERS1_
FNL:15,2206,2257
FNA:15,0,_ZNSt8_Rb_treeIlSt4pairIKllESt10_Select1stIS2_ESt4lessIlESaIS2_EE29_M_get_insert_hint_unique_posESt23_Rb_tree_const_iteratorIS2_ERS1_
FNL:16,230,231
FNA:16,0,_ZNSt13_Rb_tree_nodeISt4pairIKllEE9_M_valptrEv
FNL:17,234,235
FNA:17,0,_ZNKSt13_Rb_tree_nodeISt4pairIKllEE9_M_valptrEv
FNL:18,2373,2385
FNA:18,0,_ZNSt8_Rb_treeIlSt4pairIKllESt10_Select1stIS2_ESt4lessIlESaIS2_EE14_M_insert_nodeEPSt18_Rb_tree_node_baseSA_PSt13_Rb_tree_nodeIS2_E
FNL:19,2454,2463
FNA:19,0,_ZNSt8_Rb_treeIlSt4pairIKllESt10_Select1stIS2_ESt4lessIlESaIS2_EE22_M_emplace_hint_uniqueIJRKSt21piecewise_construct_tSt5tupleIJRS1_EESD_IJEEEEESt17_Rb_tree_iteratorIS2_ESt23_Rb_tree_const_iteratorIS2_EDpOT_
FNL:20,2525,2532
FNA:20,0,_ZNSt8_Rb_treeIlSt4pairIKllESt10_Select1stIS2_ESt4lessIlESaIS2_EE4findERS1_
FNL:21,2538,2545
FNA:21,0,_ZNKSt8_Rb_treeIlSt4pairIKllESt10_Select1stIS2_ESt4lessIlESaIS2_EE4findERS1_
FNL:22,269,270
FNA:22,0,_ZNSt17_Rb_tree_iteratorISt4pairIKllEEC1EPSt18_Rb_tree_node_base
FNL:23,273,274
FNA:23,0,_ZNKSt17_Rb_tree_iteratorISt4pairIKllEEdeEv
FNL:24,277,278
FNA:24,0,_ZNKSt17_Rb_tree_iteratorISt4pairIKllEEptEv
FNL:25,281,285
FNA:25,0,_ZNSt17_Rb_tree_iteratorISt4pairIKllEEppEv
FNL:26,296,300
FNA:26,0,_ZNSt17_Rb_tree_iteratorISt4pairIKllEEmmEv
FNL:27,311,312
FNA:27,0,_ZSteqRKSt17_Rb_tree_iteratorISt4pairIKllEES5_
FNL:28,316,317
FNA:28,0,_ZStneRKSt17_Rb_tree_iteratorISt4pairIKllEES5_
FNL:29,343,344
FNA:29,0,_ZNSt23_Rb_tree_const_iteratorISt4pairIKllEEC1EPKSt18_Rb_tree_node_base
FNL:30,346,347
FNA:30,0,_ZNSt23_Rb_tree_const_iteratorISt4pairIKllEEC1ERKSt17_Rb_tree_iteratorIS2_E
FNL:31,350,351
FNA:31,0,_ZNKSt23_Rb_tree_const_iteratorISt4pairIKllEE13_M_const_castEv
FNL:32,392,393
FNA:32,0,_ZSteqRKSt23_Rb_tree_const_iteratorISt4pairIKllEES5_
FNL:33,545,546
FNA:33,0,_ZNSt8_Rb_treeIlSt4pairIKllESt10_Select1stIS2_ESt4lessIlESaIS2_EE21_M_get_Node_allocatorEv
FNL:34,558,559
FNA:34,0,_ZNSt8_Rb_treeIlSt4pairIKllESt10_Select1stIS2_ESt4lessIlESaIS2_EE11_M_get_nodeEv
FNL:35,562,563
FNA:35,0,_ZNSt8_Rb_treeIlSt4pairIKllESt10_Select1stIS2_ESt4lessIlESaIS2_EE11_M_put_nodeEPSt13_Rb_tree_nodeIS2_E
FNL:36,588,603
FNA:36,0,_ZNSt8_Rb_treeIlSt4pairIKllESt10_Select1stIS2_ESt4lessIlESaIS2_EE17_M_construct_nodeIJRKSt21piecewise_construct_tSt5tupleIJRS1_EESD_IJEEEEEvPSt13_Rb_tree_nodeIS2_EDpOT_
FNL:37,607,612
FNA:37,0,_ZNSt8_Rb_treeIlSt4pairIKllESt10_Select1stIS2_ESt4lessIlESaIS2_EE14_M_create_nodeIJRKSt21piecewise_construct_tSt5tupleIJRS1_EESD_IJEEEEEPSt13_Rb_tree_nodeIS2_EDpOT_
FNL:38,616,624
FNA:38,0,_ZNSt8_Rb_treeIlSt4pairIKllESt10_Select1stIS2_ESt4lessIlESaIS2_EE15_M_destroy_nodeEPSt13_Rb_tree_nodeIS2_E
FNL:39,627,631
FNA:39,0,_ZNSt8_Rb_treeIlSt4pairIKllESt10_Select1stIS2_ESt4lessIlESaIS2_EE12_M_drop_nodeEPSt13_Rb_tree_nodeIS2_E
FNL:40,665,670
FNA:40,0,_ZNSt8_Rb_treeIlSt4pairIKllESt10_Select1stIS2_ESt4lessIlESaIS2_EE13_Rb_tree_implIS6_Lb1EEC1Ev
FNL:41,716,717
FNA:41,0,_ZNSt8_Rb_treeIlSt4pairIKllESt10_Select1stIS2_ESt4lessIlESaIS2_EE11_M_leftmostEv
FNL:42,724,725
FNA:42,0,_ZNSt8_Rb_treeIlSt4pairIKllESt10_Select1stIS2_ESt4lessIlESaIS2_EE12_M_rightmostEv
FNL:43,732,733
FNA:43,0,_ZNKSt8_Rb_treeIlSt4pairIKllESt10_Select1stIS2_ESt4lessIlESaIS2_EE9_M_mbeginEv
FNL:44,736,737
FNA:44,0,_ZNSt8_Rb_treeIlSt4pairIKllESt10_Select1stIS2_ESt4lessIlESaIS2_EE8_M_beginEv
FNL:45,740,744
FNA:45,0,_ZNKSt8_Rb_treeIlSt4pairIKllESt10_Select1stIS2_ESt4lessIlESaIS2_EE8_M_beginEv
FNL:46,747,748
FNA:46,0,_ZNSt8_Rb_treeIlSt4pairIKllESt10_Select1stIS2_ESt4lessIlESaIS2_EE6_M_endEv
FNL:47,751,752
FNA:47,0,_ZNKSt8_Rb_treeIlSt4pairIKllESt10_Select1stIS2_ESt4lessIlESaIS2_EE6_M_endEv
FNL:48,755,774
FNA:48,0,_ZNSt8_Rb_treeIlSt4pairIKllESt10_Select1stIS2_ESt4lessIlESaIS2_EE6_S_keyEPKSt13_Rb_tree_nodeIS2_E
FNL:49,777,778
FNA:49,0,_ZNSt8_Rb_treeIlSt4pairIKllESt10_Select1stIS2_ESt4lessIlESaIS2_EE7_S_leftEPSt18_Rb_tree_node_base
FNL:50,781,782
FNA:50,0,_ZNSt8_Rb_treeIlSt4pairIKllESt10_Select1stIS2_ESt4lessIlESaIS2_EE7_S_leftEPKSt18_Rb_tree_node_base
FNL:51,785,786
FNA:51,0,_ZNSt8_Rb_treeIlSt4pairIKllESt10_Select1stIS2_ESt4lessIlESaIS2_EE8_S_rightEPSt18_Rb_tree_node_base
FNL:52,789,790
FNA:52,0,_ZNSt8_Rb_treeIlSt4pairIKllESt10_Select1stIS2_ESt4lessIlESaIS2_EE8_S_rightEPKSt18_Rb_tree_node_base
FNL:53,793,794
FNA:53,0,_ZNSt8_Rb_treeIlSt4pairIKllESt10_Select1stIS2_ESt4lessIlESaIS2_EE6_S_keyEPKSt18_Rb_tree_node_base
FNL:54,926,926
FNA:54,0,_ZNSt8_Rb_treeIlSt4pairIKllESt10_Select1stIS2_ESt4lessIlESaIS2_EEC1Ev
FNL:55,981,982
FNA:55,0,_ZNSt8_Rb_treeIlSt4pairIKllESt10_Select1stIS2_ESt4lessIlESaIS2_EED1Ev
FNL:56,989,990
FNA:56,0,_ZNKSt8_Rb_treeIlSt4pairIKllESt10_Select1stIS2_ESt4lessIlESaIS2_EE8key_compEv
FNL:57,993,994
FNA:57,0,_ZNSt8_Rb_treeIlSt4pairIKllESt10_Select1stIS2_ESt4lessIlESaIS2_EE5beginEv
FNF:58
FNH:2
DA:142,0
DA:146,0
DA:169,2
DA:170,2
DA:171,2
DA:172,2
DA:173,2
DA:202,2
DA:204,2
DA:205,2
DA:206,2
DA:207,2
DA:208,2
DA:230,0
DA:231,0
DA:234,0
DA:235,0
DA:269,0
DA:270,0
DA:273,0
DA:274,0
DA:277,0
DA:278,0
DA:281,0
DA:283,0
DA:284,0
DA:296,0
DA:298,0
DA:299,0
DA:311,0
DA:312,0
DA:316,0
DA:317,0
DA:343,0
DA:344,0
DA:346,0
DA:347,0
DA:350,0
DA:351,0
DA:392,0
DA:393,0
DA:545,0
DA:546,0
DA:558,0
DA:559,0
DA:562,0
DA:563,0
DA:588,0
DA:592,0
DA:593,0
DA:597,0
DA:599,0
DA:600,0
DA:601,0
DA:603,0
DA:607,0
DA:609,0
DA:610,0
DA:611,0
DA:616,0
DA:621,0
DA:622,0
DA:624,0
DA:627,0
DA:629,0
DA:630,0
DA:631,0
DA:665,0
DA:669,0
DA:670,0
DA:716,0
DA:717,0
DA:724,0
DA:725,0
DA:732,0
DA:733,0
DA:736,0
DA:737,0
DA:740,0
DA:743,0
DA:747,0
DA:748,0
DA:751,0
DA:752,0
DA:755,0
DA:773,0
DA:777,0
DA:778,0
DA:781,0
DA:782,0
DA:785,0
DA:786,0
DA:789,0
DA:790,0
DA:793,0
DA:794,0
DA:926,0
DA:981,0
DA:982,0
DA:989,0
DA:990,0
DA:993,0
DA:994,0
DA:1001,0
DA:1002,0
DA:1005,0
DA:1006,0
DA:1029,0
DA:1030,0
DA:1266,0
DA:1267,0
DA:1631,0
DA:1632,0
DA:1633,0
DA:1634,0
DA:1636,0
DA:1638,0
DA:1639,0
DA:1640,0
DA:1647,0
DA:1648,0
DA:1651,0
DA:1653,0
DA:1654,0
DA:1655,0
DA:1926,0
DA:1930,0
DA:1932,0
DA:1933,0
DA:1934,0
DA:1935,0
DA:1937,0
DA:1943,0
DA:1947,0
DA:1948,0
DA:1949,0
DA:1951,0
DA:1952,0
DA:1959,0
DA:1963,0
DA:1964,0
DA:1965,0
DA:1967,0
DA:1968,0
DA:2104,0
DA:2108,0
DA:2109,0
DA:2110,0
DA:2111,0
DA:2113,0
DA:2114,0
DA:2115,0
DA:2117,0
DA:2118,0
DA:2120,0
DA:2121,0
DA:2123,0
DA:2125,0
DA:2126,0
DA:2127,0
DA:2206,0
DA:2210,0
DA:2214,0
DA:2216,0
DA:2217,0
DA:2218,0
DA:2220,0
DA:2222,0
DA:2225,0
DA:2226,0
DA:2227,0
DA:2228,0
DA:2230,0
DA:2231,0
DA:2233,0
DA:2236,0
DA:2238,0
DA:2241,0
DA:2242,0
DA:2243,0
DA:2244,0
DA:2246,0
DA:2247,0
DA:2249,0
DA:2252,0
DA:2256,0
DA:2373,0
DA:2377,0
DA:2378,0
DA:2381,0
DA:2382,0
DA:2383,0
DA:2384,0
DA:2454,0
DA:2458,0
DA:2459,0
DA:2460,0
DA:2461,0
DA:2462,0
DA:2463,0
DA:2525,0
DA:2528,0
DA:2529,0
DA:2530,0
DA:2531,0
DA:2538,0
DA:2541,0
DA:2542,0
DA:2543,0
DA:2544,0
LF:210
LH:11
end_of_record
TN:
SF:/opt/local/include/gcc14/c++/bits/stl_uninitialized.h
FNL:0,1067,1077
FNA:0,3,_ZSt19__relocate_object_aINSt7__cxx1112basic_stringIcSt11char_traitsIcESaIcEEES5_SaIS5_EEvPT_PT0_RT1_
FNA:0,0,_ZSt19__relocate_object_aINSt7__cxx1112regex_traitsIcE10_RegexMaskES3_SaIS3_EEvPT_PT0_RT1_
FNA:0,0,_ZSt19__relocate_object_aINSt8__detail6_StateIcEES2_SaIS2_EEvPT_PT0_RT1_
FNA:0,0,_ZSt19__relocate_object_aISt4pairINSt7__cxx1112basic_stringIcSt11char_traitsIcESaIcEEES6_ES7_SaIS7_EEvPT_PT0_RT1_
FNA:0,0,_ZSt19__relocate_object_aISt4pairIccES1_SaIS1_EEvPT_PT0_RT1_
FNA:0,0,_ZSt19__relocate_object_aISt4pairIlSt6vectorINSt7__cxx119sub_matchIN9__gnu_cxx17__normal_iteratorIPcNS2_12basic_stringIcSt11char_traitsIcESaIcEEEEEEESaISD_EEESG_SaISG_EEvPT_PT0_RT1_
FNL:1,1089,1106
FNA:1,11,_ZSt14__relocate_a_1IPNSt7__cxx1112basic_stringIcSt11char_traitsIcESaIcEEES6_SaIS5_EET0_T_S9_S8_RT1_
FNA:1,0,_ZSt14__relocate_a_1IPNSt7__cxx1112regex_traitsIcE10_RegexMaskES4_SaIS3_EET0_T_S7_S6_RT1_
FNA:1,0,_ZSt14__relocate_a_1IPNSt8__detail6_StateIcEES3_SaIS2_EET0_T_S6_S5_RT1_
FNA:1,0,_ZSt14__relocate_a_1IPSt4pairINSt7__cxx1112basic_stringIcSt11char_traitsIcESaIcEEES6_ES8_SaIS7_EET0_T_SB_SA_RT1_
FNA:1,0,_ZSt14__relocate_a_1IPSt4pairIccES2_SaIS1_EET0_T_S5_S4_RT1_
FNA:1,0,_ZSt14__relocate_a_1IPSt4pairIlSt6vectorINSt7__cxx119sub_matchIN9__gnu_cxx17__normal_iteratorIPcNS2_12basic_stringIcSt11char_traitsIcESaIcEEEEEEESaISD_EEESH_SaISG_EET0_T_SK_SJ_RT1_
FNL:2,1112,1132
FNA:2,0,_ZSt14__relocate_a_1IccENSt9enable_ifIXsrSt24__is_bitwise_relocatableIT_vE5valueEPS2_E4typeES4_S4_S4_RSaIT0_E
FNA:2,0,_ZSt14__relocate_a_1ImmENSt9enable_ifIXsrSt24__is_bitwise_relocatableIT_vE5valueEPS2_E4typeES4_S4_S4_RSaIT0_E
FNL:3,113,128
FNA:3,2,_ZSt16__do_uninit_copyIN9__gnu_cxx17__normal_iteratorIPKNSt7__cxx1112basic_stringIcSt11char_traitsIcESaIcEEESt6vectorIS7_SaIS7_EEEEPS7_ET0_T_SG_SF_
FNA:3,0,_ZSt16__do_uninit_copyIN9__gnu_cxx17__normal_iteratorIPKNSt7__cxx1112regex_traitsIcE10_RegexMaskESt6vectorIS5_SaIS5_EEEEPS5_ET0_T_SE_SD_
FNA:3,0,_ZSt16__do_uninit_copyIN9__gnu_cxx17__normal_iteratorIPKNSt7__cxx119sub_matchINS1_IPcNS2_12basic_stringIcSt11char_traitsIcESaIcEEEEEEESt6vectorISB_SaISB_EEEEPSB_ET0_T_SK_SJ_
FNA:3,0,_ZSt16__do_uninit_copyIN9__gnu_cxx17__normal_iteratorIPKSt4pairINSt7__cxx1112basic_stringIcSt11char_traitsIcESaIcEEES8_ESt6vectorIS9_SaIS9_EEEEPS9_ET0_T_SI_SH_
FNA:3,0,_ZSt16__do_uninit_copyIN9__gnu_cxx17__normal_iteratorIPKSt4pairIccESt6vectorIS3_SaIS3_EEEEPS3_ET0_T_SC_SB_
FNA:3,0,_ZSt16__do_uninit_copyIPNSt7__cxx119sub_matchIN9__gnu_cxx17__normal_iteratorIPcNS0_12basic_stringIcSt11char_traitsIcESaIcEEEEEEESC_ET0_T_SE_SD_
FNL:4,1139,1148
FNA:4,0,_ZSt12__relocate_aIPNSt7__cxx1112basic_stringIcSt11char_traitsIcESaIcEEES6_SaIS5_EET0_T_S9_S8_RT1_
FNA:4,0,_ZSt12__relocate_aIPNSt7__cxx1112regex_traitsIcE10_RegexMaskES4_SaIS3_EET0_T_S7_S6_RT1_
FNA:4,0,_ZSt12__relocate_aIPNSt8__detail6_StateIcEES3_SaIS2_EET0_T_S6_S5_RT1_
FNA:4,0,_ZSt12__relocate_aIPSt4pairINSt7__cxx1112basic_stringIcSt11char_traitsIcESaIcEEES6_ES8_SaIS7_EET0_T_SB_SA_RT1_
FNA:4,0,_ZSt12__relocate_aIPSt4pairIccES2_SaIS1_EET0_T_S5_S4_RT1_
FNA:4,0,_ZSt12__relocate_aIPSt4pairIlSt6vectorINSt7__cxx119sub_matchIN9__gnu_cxx17__normal_iteratorIPcNS2_12basic_stringIcSt11char_traitsIcESaIcEEEEEEESaISD_EEESH_SaISG_EET0_T_SK_SJ_RT1_
FNA:4,0,_ZSt12__relocate_aIPcS0_SaIcEET0_T_S3_S2_RT1_
FNA:4,0,_ZSt12__relocate_aIPmS0_SaImEET0_T_S3_S2_RT1_
FNL:5,135,137
FNA:5,2,_ZNSt20__uninitialized_copyILb0EE13__uninit_copyIN9__gnu_cxx17__normal_iteratorIPKNSt7__cxx1112basic_stringIcSt11char_traitsIcESaIcEEESt6vectorIS9_SaIS9_EEEEPS9_EET0_T_SI_SH_
FNA:5,0,_ZNSt20__uninitialized_copyILb0EE13__uninit_copyIN9__gnu_cxx17__normal_iteratorIPKNSt7__cxx1112regex_traitsIcE10_RegexMaskESt6vectorIS7_SaIS7_EEEEPS7_EET0_T_SG_SF_
FNA:5,0,_ZNSt20__uninitialized_copyILb0EE13__uninit_copyIN9__gnu_cxx17__normal_iteratorIPKNSt7__cxx119sub_matchINS3_IPcNS4_12basic_stringIcSt11char_traitsIcESaIcEEEEEEESt6vectorISD_SaISD_EEEEPSD_EET0_T_SM_SL_
FNA:5,0,_ZNSt20__uninitialized_copyILb0EE13__uninit_copyIN9__gnu_cxx17__normal_iteratorIPKSt4pairINSt7__cxx1112basic_stringIcSt11char_traitsIcESaIcEEESA_ESt6vectorISB_SaISB_EEEEPSB_EET0_T_SK_SJ_
FNA:5,0,_ZNSt20__uninitialized_copyILb0EE13__uninit_copyIN9__gnu_cxx17__normal_iteratorIPKSt4pairIccESt6vectorIS5_SaIS5_EEEEPS5_EET0_T_SE_SD_
FNA:5,0,_ZNSt20__uninitialized_copyILb0EE13__uninit_copyIPNSt7__cxx119sub_matchIN9__gnu_cxx17__normal_iteratorIPcNS2_12basic_stringIcSt11char_traitsIcESaIcEEEEEEESE_EET0_T_SG_SF_
FNL:6,145,147
FNA:6,0,_ZNSt20__uninitialized_copyILb1EE13__uninit_copyIN9__gnu_cxx17__normal_iteratorIPKcSt6vectorIcSaIcEEEEPcEET0_T_SC_SB_
FNA:6,0,_ZNSt20__uninitialized_copyILb1EE13__uninit_copyIPKcPcEET0_T_S6_S5_
FNA:6,0,_ZNSt20__uninitialized_copyILb1EE13__uninit_copyIPcS2_EET0_T_S4_S3_
FNL:7,163,186
FNA:7,2,_ZSt18uninitialized_copyIN9__gnu_cxx17__normal_iteratorIPKNSt7__cxx1112basic_stringIcSt11char_traitsIcESaIcEEESt6vectorIS7_SaIS7_EEEEPS7_ET0_T_SG_SF_
FNA:7,0,_ZSt18uninitialized_copyIN9__gnu_cxx17__normal_iteratorIPKNSt7__cxx1112regex_traitsIcE10_RegexMaskESt6vectorIS5_SaIS5_EEEEPS5_ET0_T_SE_SD_
FNA:7,0,_ZSt18uninitialized_copyIN9__gnu_cxx17__normal_iteratorIPKNSt7__cxx119sub_matchINS1_IPcNS2_12basic_stringIcSt11char_traitsIcESaIcEEEEEEESt6vectorISB_SaISB_EEEEPSB_ET0_T_SK_SJ_
FNA:7,0,_ZSt18uninitialized_copyIN9__gnu_cxx17__normal_iteratorIPKSt4pairINSt7__cxx1112basic_stringIcSt11char_traitsIcESaIcEEES8_ESt6vectorIS9_SaIS9_EEEEPS9_ET0_T_SI_SH_
FNA:7,0,_ZSt18uninitialized_copyIN9__gnu_cxx17__normal_iteratorIPKSt4pairIccESt6vectorIS3_SaIS3_EEEEPS3_ET0_T_SC_SB_
FNA:7,0,_ZSt18uninitialized_copyIN9__gnu_cxx17__normal_iteratorIPKcSt6vectorIcSaIcEEEEPcET0_T_SA_S9_
FNA:7,0,_ZSt18uninitialized_copyIPKcPcET0_T_S4_S3_
FNA:7,0,_ZSt18uninitialized_copyIPNSt7__cxx119sub_matchIN9__gnu_cxx17__normal_iteratorIPcNS0_12basic_stringIcSt11char_traitsIcESaIcEEEEEEESC_ET0_T_SE_SD_
FNA:7,0,_ZSt18uninitialized_copyIPcS0_ET0_T_S2_S1_
FNL:8,261,275
FNA:8,0,_ZSt18__do_uninit_fill_nIPNSt7__cxx119sub_matchIN9__gnu_cxx17__normal_iteratorIPcNS0_12basic_stringIcSt11char_traitsIcESaIcEEEEEEEmSB_ET_SD_T0_RKT1_
FNL:9,282,284
FNA:9,0,_ZNSt22__uninitialized_fill_nILb0EE15__uninit_fill_nIPNSt7__cxx119sub_matchIN9__gnu_cxx17__normal_iteratorIPcNS2_12basic_stringIcSt11char_traitsIcESaIcEEEEEEEmSD_EET_SF_T0_RKT1_
FNL:10,312,328
FNA:10,0,_ZSt20uninitialized_fill_nIPNSt7__cxx119sub_matchIN9__gnu_cxx17__normal_iteratorIPcNS0_12basic_stringIcSt11char_traitsIcESaIcEEEEEEEmSB_ET_SD_T0_RKT1_
FNL:11,366,374
FNA:11,2,_ZSt22__uninitialized_copy_aIN9__gnu_cxx17__normal_iteratorIPKNSt7__cxx1112basic_stringIcSt11char_traitsIcESaIcEEESt6vectorIS7_SaIS7_EEEEPS7_S7_ET0_T_SG_SF_RSaIT1_E
FNA:11,0,_ZSt22__uninitialized_copy_aIN9__gnu_cxx17__normal_iteratorIPKNSt7__cxx1112regex_traitsIcE10_RegexMaskESt6vectorIS5_SaIS5_EEEEPS5_S5_ET0_T_SE_SD_RSaIT1_E
FNA:11,0,_ZSt22__uninitialized_copy_aIN9__gnu_cxx17__normal_iteratorIPKNSt7__cxx119sub_matchINS1_IPcNS2_12basic_stringIcSt11char_traitsIcESaIcEEEEEEESt6vectorISB_SaISB_EEEEPSB_SB_ET0_T_SK_SJ_RSaIT1_E
FNA:11,0,_ZSt22__uninitialized_copy_aIN9__gnu_cxx17__normal_iteratorIPKSt4pairINSt7__cxx1112basic_stringIcSt11char_traitsIcESaIcEEES8_ESt6vectorIS9_SaIS9_EEEEPS9_S9_ET0_T_SI_SH_RSaIT1_E
FNA:11,0,_ZSt22__uninitialized_copy_aIN9__gnu_cxx17__normal_iteratorIPKSt4pairIccESt6vectorIS3_SaIS3_EEEEPS3_S3_ET0_T_SC_SB_RSaIT1_E
FNA:11,0,_ZSt22__uninitialized_copy_aIN9__gnu_cxx17__normal_iteratorIPKcSt6vectorIcSaIcEEEEPccET0_T_SA_S9_RSaIT1_E
FNA:11,0,_ZSt22__uninitialized_copy_aIPKcPccET0_T_S4_S3_RSaIT1_E
FNA:11,0,_ZSt22__uninitialized_copy_aIPNSt7__cxx119sub_matchIN9__gnu_cxx17__normal_iteratorIPcNS0_12basic_stringIcSt11char_traitsIcESaIcEEEEEEESC_SB_ET0_T_SE_SD_RSaIT1_E
FNA:11,0,_ZSt22__uninitialized_copy_aIPcS0_cET0_T_S2_S1_RSaIT1_E
FNL:12,465,473
FNA:12,0,_ZSt24__uninitialized_fill_n_aIPNSt7__cxx119sub_matchIN9__gnu_cxx17__normal_iteratorIPcNS0_12basic_stringIcSt11char_traitsIcESaIcEEEEEEEmSB_SB_ET_SD_T0_RKT1_RSaIT2_E
FNL:13,637,651
FNA:13,0,_ZNSt27__uninitialized_default_n_1ILb0EE18__uninit_default_nIPSt4pairIN9__gnu_cxx17__normal_iteratorIPcNSt7__cxx1112basic_stringIcSt11char_traitsIcESaIcEEEEEiEmEET_SF_T0_
FNL:14,696,713
FNA:14,0,_ZSt25__uninitialized_default_nIPSt4pairIN9__gnu_cxx17__normal_iteratorIPcNSt7__cxx1112basic_stringIcSt11char_traitsIcESaIcEEEEEiEmET_SD_T0_
FNL:15,777,779
FNA:15,0,_ZSt27__uninitialized_default_n_aIPSt4pairIN9__gnu_cxx17__normal_iteratorIPcNSt7__cxx1112basic_stringIcSt11char_traitsIcESaIcEEEEEiEmSB_ET_SD_T0_RSaIT1_E
FNF:16
FNH:6
DA:113,2
DA:116,2
DA:119,4
DA:120,2
DA:121,2
DA:123,0
DA:125,0
DA:126,0
DA:135,2
DA:137,2
DA:145,0
DA:147,0
DA:163,2
DA:174,2
DA:181,2
DA:185,2
DA:261,0
DA:263,0
DA:266,0
DA:267,0
DA:268,0
DA:282,0
DA:284,0
DA:312,0
DA:319,0
DA:327,0
DA:366,2
DA:373,2
DA:465,0
DA:472,0
DA:637,0
DA:639,0
DA:642,0
DA:643,0
DA:644,0
DA:646,0
DA:648,0
DA:649,0
DA:696,0
DA:707,0
DA:712,0
DA:777,0
DA:779,0
DA:1067,3
DA:1075,3
DA:1076,3
DA:1077,3
DA:1089,11
DA:1101,11
DA:1102,14
DA:1103,3
DA:1105,11
DA:1112,0
DA:1116,0
DA:1117,0
DA:1129,0
DA:1131,0
DA:1139,0
DA:1145,0
DA:1147,0
LF:60
LH:22
end_of_record
TN:
SF:/opt/local/include/gcc14/c++/bits/stl_vector.h
FNL:0,104,107
FNA:0,0,_ZNSt12_Vector_baseINSt7__cxx1112basic_stringIcSt11char_traitsIcESaIcEEESaIS5_EE17_Vector_impl_dataC2EOS8_
FNA:0,0,_ZNSt12_Vector_baseINSt7__cxx1112regex_traitsIcE10_RegexMaskESaIS3_EE17_Vector_impl_dataC2EOS6_
FNA:0,0,_ZNSt12_Vector_baseINSt7__cxx119sub_matchIN9__gnu_cxx17__normal_iteratorIPcNS0_12basic_stringIcSt11char_traitsIcESaIcEEEEEEESaISB_EE17_Vector_impl_dataC2EOSE_
FNA:0,0,_ZNSt12_Vector_baseISt4pairINSt7__cxx1112basic_stringIcSt11char_traitsIcESaIcEEES6_ESaIS7_EE17_Vector_impl_dataC2EOSA_
FNA:0,0,_ZNSt12_Vector_baseISt4pairIccESaIS1_EE17_Vector_impl_dataC2EOS4_
FNA:0,0,_ZNSt12_Vector_baseISt4pairIlSt6vectorINSt7__cxx119sub_matchIN9__gnu_cxx17__normal_iteratorIPcNS2_12basic_stringIcSt11char_traitsIcESaIcEEEEEEESaISD_EEESaISG_EE17_Vector_impl_dataC2EOSJ_
FNA:0,0,_ZNSt12_Vector_baseIcSaIcEE17_Vector_impl_dataC2EOS2_
FNL:1,1078,1082
FNA:1,0,_ZNKSt6vectorINSt7__cxx119sub_matchIN9__gnu_cxx17__normal_iteratorIPcNS0_12basic_stringIcSt11char_traitsIcESaIcEEEEEEESaISB_EE8capacityEv
FNL:2,1090,1091
FNA:2,0,_ZNKSt6vectorINSt7__cxx119sub_matchIN9__gnu_cxx17__normal_iteratorIPcNS0_12basic_stringIcSt11char_traitsIcESaIcEEEEEEESaISB_EE5emptyEv
FNA:2,0,_ZNKSt6vectorISt4pairIlS_INSt7__cxx119sub_matchIN9__gnu_cxx17__normal_iteratorIPcNS1_12basic_stringIcSt11char_traitsIcESaIcEEEEEEESaISC_EEESaISF_EE5emptyEv
FNL:3,112,117
FNA:3,0,_ZNSt12_Vector_baseINSt7__cxx119sub_matchIN9__gnu_cxx17__normal_iteratorIPcNS0_12basic_stringIcSt11char_traitsIcESaIcEEEEEEESaISB_EE17_Vector_impl_data12_M_copy_dataERKSE_
FNL:4,1128,1132
FNA:4,0,_ZNSt6vectorINSt7__cxx119sub_matchIN9__gnu_cxx17__normal_iteratorIPcNS0_12basic_stringIcSt11char_traitsIcESaIcEEEEEEESaISB_EEixEm
FNA:4,0,_ZNSt6vectorINSt8__detail6_StateIcEESaIS2_EEixEm
FNA:4,0,_ZNSt6vectorISt4pairIN9__gnu_cxx17__normal_iteratorIPcNSt7__cxx1112basic_stringIcSt11char_traitsIcESaIcEEEEEiESaISB_EEixEm
FNL:5,1147,1151
FNA:5,0,_ZNKSt6vectorINSt7__cxx119sub_matchIN9__gnu_cxx17__normal_iteratorIPcNS0_12basic_stringIcSt11char_traitsIcESaIcEEEEEEESaISB_EEixEm
FNA:5,0,_ZNKSt6vectorINSt8__detail6_StateIcEESaIS2_EEixEm
FNL:6,121,129
FNA:6,0,_ZNSt12_Vector_baseINSt7__cxx119sub_matchIN9__gnu_cxx17__normal_iteratorIPcNS0_12basic_stringIcSt11char_traitsIcESaIcEEEEEEESaISB_EE17_Vector_impl_data12_M_swap_dataERSE_
FNL:7,1235,1239
FNA:7,0,_ZNSt6vectorINSt8__detail6_StateIcEESaIS2_EE4backEv
FNA:7,0,_ZNSt6vectorISt4pairINSt7__cxx1112basic_stringIcSt11char_traitsIcESaIcEEES6_ESaIS7_EE4backEv
FNA:7,0,_ZNSt6vectorISt4pairIccESaIS1_EE4backEv
FNA:7,0,_ZNSt6vectorISt4pairIlS_INSt7__cxx119sub_matchIN9__gnu_cxx17__normal_iteratorIPcNS1_12basic_stringIcSt11char_traitsIcESaIcEEEEEEESaISC_EEESaISF_EE4backEv
FNA:7,0,_ZNSt6vectorIcSaIcEE4backEv
FNA:7,0,_ZNSt6vectorImSaImEE4backEv
FNL:8,1262,1263
FNA:8,0,_ZNSt6vectorIcSaIcEE4dataEv
FNL:9,1283,1295
FNA:9,0,_ZNSt6vectorINSt7__cxx1112basic_stringIcSt11char_traitsIcESaIcEEESaIS5_EE9push_backERKS5_
FNA:9,0,_ZNSt6vectorINSt7__cxx1112regex_traitsIcE10_RegexMaskESaIS3_EE9push_backERKS3_
FNA:9,0,_ZNSt6vectorImSaImEE9push_backERKm
FNL:10,1300,1301
FNA:10,0,_ZNSt6vectorINSt8__detail6_StateIcEESaIS2_EE9push_backEOS2_
FNA:10,0,_ZNSt6vectorISt4pairINSt7__cxx1112basic_stringIcSt11char_traitsIcESaIcEEES6_ESaIS7_EE9push_backEOS7_
FNA:10,0,_ZNSt6vectorISt4pairIccESaIS1_EE9push_backEOS1_
FNA:10,0,_ZNSt6vectorIcSaIcEE9push_backEOc
FNL:11,1324,1330
FNA:11,0,_ZNSt6vectorImSaImEE8pop_backEv
FNL:12,136,142
FNA:12,14,_ZNSt12_Vector_baseINSt7__cxx1112basic_stringIcSt11char_traitsIcESaIcEEESaIS5_EE12_Vector_implC1Ev
FNA:12,0,_ZNSt12_Vector_baseINSt7__cxx1112regex_traitsIcE10_RegexMaskESaIS3_EE12_Vector_implC1Ev
FNA:12,0,_ZNSt12_Vector_baseINSt8__detail6_StateIcEESaIS2_EE12_Vector_implC1Ev
FNA:12,0,_ZNSt12_Vector_baseISt4pairINSt7__cxx1112basic_stringIcSt11char_traitsIcESaIcEEES6_ESaIS7_EE12_Vector_implC1Ev
FNA:12,0,_ZNSt12_Vector_baseISt4pairIccESaIS1_EE12_Vector_implC1Ev
FNA:12,0,_ZNSt12_Vector_baseISt4pairIlSt6vectorINSt7__cxx119sub_matchIN9__gnu_cxx17__normal_iteratorIPcNS2_12basic_stringIcSt11char_traitsIcESaIcEEEEEEESaISD_EEESaISG_EE12_Vector_implC1Ev
FNA:12,0,_ZNSt12_Vector_baseIcSaIcEE12_Vector_implC1Ev
FNA:12,0,_ZNSt12_Vector_baseImSaImEE12_Vector_implC1Ev
FNL:13,145,147
FNA:13,3,_ZNSt12_Vector_baseINSt7__cxx1112basic_stringIcSt11char_traitsIcESaIcEEESaIS5_EE12_Vector_implC1ERKS6_
FNA:13,0,_ZNSt12_Vector_baseINSt7__cxx1112regex_traitsIcE10_RegexMaskESaIS3_EE12_Vector_implC1ERKS4_
FNA:13,0,_ZNSt12_Vector_baseINSt7__cxx119sub_matchIN9__gnu_cxx17__normal_iteratorIPcNS0_12basic_stringIcSt11char_traitsIcESaIcEEEEEEESaISB_EE12_Vector_implC1ERKSC_
FNA:13,0,_ZNSt12_Vector_baseISt4pairIN9__gnu_cxx17__normal_iteratorIPcNSt7__cxx1112basic_stringIcSt11char_traitsIcESaIcEEEEEiESaISB_EE12_Vector_implC1ERKSC_
FNA:13,0,_ZNSt12_Vector_baseISt4pairINSt7__cxx1112basic_stringIcSt11char_traitsIcESaIcEEES6_ESaIS7_EE12_Vector_implC1ERKS8_
FNA:13,0,_ZNSt12_Vector_baseISt4pairIccESaIS1_EE12_Vector_implC1ERKS2_
FNA:13,0,_ZNSt12_Vector_baseIcSaIcEE12_Vector_implC1ERKS0_
FNL:14,153,155
FNA:14,0,_ZNSt12_Vector_baseINSt7__cxx1112basic_stringIcSt11char_traitsIcESaIcEEESaIS5_EE12_Vector_implC1EOS8_
FNA:14,0,_ZNSt12_Vector_baseINSt7__cxx1112regex_traitsIcE10_RegexMaskESaIS3_EE12_Vector_implC1EOS6_
FNA:14,0,_ZNSt12_Vector_baseINSt7__cxx119sub_matchIN9__gnu_cxx17__normal_iteratorIPcNS0_12basic_stringIcSt11char_traitsIcESaIcEEEEEEESaISB_EE12_Vector_implC1EOSE_
FNA:14,0,_ZNSt12_Vector_baseISt4pairINSt7__cxx1112basic_stringIcSt11char_traitsIcESaIcEEES6_ESaIS7_EE12_Vector_implC1EOSA_
FNA:14,0,_ZNSt12_Vector_baseISt4pairIccESaIS1_EE12_Vector_implC1EOS4_
FNA:14,0,_ZNSt12_Vector_baseISt4pairIlSt6vectorINSt7__cxx119sub_matchIN9__gnu_cxx17__normal_iteratorIPcNS2_12basic_stringIcSt11char_traitsIcESaIcEEEEEEESaISD_EEESaISG_EE12_Vector_implC1EOSJ_
FNA:14,0,_ZNSt12_Vector_baseIcSaIcEE12_Vector_implC1EOS2_
FNL:15,1564,1569
FNA:15,0,_ZNSt6vectorIcSaIcEE5eraseEN9__gnu_cxx17__normal_iteratorIPKcS1_EES6_
FNL:16,1607,1608
FNA:16,0,_ZNSt6vectorINSt7__cxx119sub_matchIN9__gnu_cxx17__normal_iteratorIPcNS0_12basic_stringIcSt11char_traitsIcESaIcEEEEEEESaISB_EE5clearEv
FNA:16,0,_ZNSt6vectorISt4pairIlS_INSt7__cxx119sub_matchIN9__gnu_cxx17__normal_iteratorIPcNS1_12basic_stringIcSt11char_traitsIcESaIcEEEEEEESaISC_EEESaISF_EE5clearEv
FNL:17,1618,1633
FNA:17,0,_ZNSt6vectorINSt7__cxx119sub_matchIN9__gnu_cxx17__normal_iteratorIPcNS0_12basic_stringIcSt11char_traitsIcESaIcEEEEEEESaISB_EE20_M_allocate_and_copyINS3_IPKSB_SD_EEEEPSB_mT_SJ_
FNL:18,163,165
FNA:18,0,_ZNSt12_Vector_baseINSt7__cxx119sub_matchIN9__gnu_cxx17__normal_iteratorIPcNS0_12basic_stringIcSt11char_traitsIcESaIcEEEEEEESaISB_EE12_Vector_implC1EOSC_OSE_
FNL:19,1689,1700
FNA:19,0,_ZNSt6vectorIcSaIcEE19_M_range_initializeIPKcEEvT_S5_St20forward_iterator_tag
FNA:19,0,_ZNSt6vectorIcSaIcEE19_M_range_initializeIPcEEvT_S4_St20forward_iterator_tag
FNL:20,1706,1711
FNA:20,0,_ZNSt6vectorINSt7__cxx119sub_matchIN9__gnu_cxx17__normal_iteratorIPcNS0_12basic_stringIcSt11char_traitsIcESaIcEEEEEEESaISB_EE18_M_fill_initializeEmRKSB_
FNL:21,1717,1722
FNA:21,0,_ZNSt6vectorISt4pairIN9__gnu_cxx17__normal_iteratorIPcNSt7__cxx1112basic_stringIcSt11char_traitsIcESaIcEEEEEiESaISB_EE21_M_default_initializeEm
FNL:22,1906,1913
FNA:22,0,_ZNKSt6vectorINSt7__cxx1112basic_stringIcSt11char_traitsIcESaIcEEESaIS5_EE12_M_check_lenEmPKc
FNA:22,0,_ZNKSt6vectorINSt7__cxx1112regex_traitsIcE10_RegexMaskESaIS3_EE12_M_check_lenEmPKc
FNA:22,0,_ZNKSt6vectorINSt8__detail6_StateIcEESaIS2_EE12_M_check_lenEmPKc
FNA:22,0,_ZNKSt6vectorISt4pairINSt7__cxx1112basic_stringIcSt11char_traitsIcESaIcEEES6_ESaIS7_EE12_M_check_lenEmPKc
FNA:22,0,_ZNKSt6vectorISt4pairIccESaIS1_EE12_M_check_lenEmPKc
FNA:22,0,_ZNKSt6vectorISt4pairIlS_INSt7__cxx119sub_matchIN9__gnu_cxx17__normal_iteratorIPcNS1_12basic_stringIcSt11char_traitsIcESaIcEEEEEEESaISC_EEESaISF_EE12_M_check_lenEmPKc
FNA:22,0,_ZNKSt6vectorIcSaIcEE12_M_check_lenEmPKc
FNA:22,0,_ZNKSt6vectorImSaImEE12_M_check_lenEmPKc
FNL:23,1917,1923
FNA:23,0,_ZNSt6vectorINSt7__cxx119sub_matchIN9__gnu_cxx17__normal_iteratorIPcNS0_12basic_stringIcSt11char_traitsIcESaIcEEEEEEESaISB_EE17_S_check_init_lenEmRKSC_
FNA:23,0,_ZNSt6vectorISt4pairIN9__gnu_cxx17__normal_iteratorIPcNSt7__cxx1112basic_stringIcSt11char_traitsIcESaIcEEEEEiESaISB_EE17_S_check_init_lenEmRKSC_
FNA:23,0,_ZNSt6vectorIcSaIcEE17_S_check_init_lenEmRKS0_
FNL:24,1926,1935
FNA:24,19,_ZNSt6vectorINSt7__cxx1112basic_stringIcSt11char_traitsIcESaIcEEESaIS5_EE11_S_max_sizeERKS6_
FNA:24,0,_ZNSt6vectorINSt7__cxx1112regex_traitsIcE10_RegexMaskESaIS3_EE11_S_max_sizeERKS4_
FNA:24,0,_ZNSt6vectorINSt7__cxx119sub_matchIN9__gnu_cxx17__normal_iteratorIPcNS0_12basic_stringIcSt11char_traitsIcESaIcEEEEEEESaISB_EE11_S_max_sizeERKSC_
FNA:24,0,_ZNSt6vectorINSt8__detail6_StateIcEESaIS2_EE11_S_max_sizeERKS3_
FNA:24,0,_ZNSt6vectorISt4pairIN9__gnu_cxx17__normal_iteratorIPcNSt7__cxx1112basic_stringIcSt11char_traitsIcESaIcEEEEEiESaISB_EE11_S_max_sizeERKSC_
FNA:24,0,_ZNSt6vectorISt4pairINSt7__cxx1112basic_stringIcSt11char_traitsIcESaIcEEES6_ESaIS7_EE11_S_max_sizeERKS8_
FNA:24,0,_ZNSt6vectorISt4pairIccESaIS1_EE11_S_max_sizeERKS2_
FNA:24,0,_ZNSt6vectorISt4pairIlS_INSt7__cxx119sub_matchIN9__gnu_cxx17__normal_iteratorIPcNS1_12basic_stringIcSt11char_traitsIcESaIcEEEEEEESaISC_EEESaISF_EE11_S_max_sizeERKSG_
FNA:24,0,_ZNSt6vectorIcSaIcEE11_S_max_sizeERKS0_
FNA:24,0,_ZNSt6vectorImSaImEE11_S_max_sizeERKS0_
FNL:25,1943,1952
FNA:25,0,_ZNSt6vectorINSt7__cxx119sub_matchIN9__gnu_cxx17__normal_iteratorIPcNS0_12basic_stringIcSt11char_traitsIcESaIcEEEEEEESaISB_EE15_M_erase_at_endEPSB_
FNA:25,0,_ZNSt6vectorISt4pairIlS_INSt7__cxx119sub_matchIN9__gnu_cxx17__normal_iteratorIPcNS1_12basic_stringIcSt11char_traitsIcESaIcEEEEEEESaISC_EEESaISF_EE15_M_erase_at_endEPSF_
FNA:25,0,_ZNSt6vectorIcSaIcEE15_M_erase_at_endEPc
FNL:26,1969,1975
FNA:26,0,_ZNSt6vectorINSt7__cxx119sub_matchIN9__gnu_cxx17__normal_iteratorIPcNS0_12basic_stringIcSt11char_traitsIcESaIcEEEEEEESaISB_EE14_M_move_assignEOSD_St17integral_constantIbLb1EE
FNL:27,2000,2001
FNA:27,0,_ZNKSt6vectorIcSaIcEE11_M_data_ptrIcEEPT_S4_
FNL:28,300,301
FNA:28,39,_ZNSt12_Vector_baseINSt7__cxx1112basic_stringIcSt11char_traitsIcESaIcEEESaIS5_EE19_M_get_Tp_allocatorEv
FNA:28,0,_ZNSt12_Vector_baseINSt7__cxx1112regex_traitsIcE10_RegexMaskESaIS3_EE19_M_get_Tp_allocatorEv
FNA:28,0,_ZNSt12_Vector_baseINSt7__cxx119sub_matchIN9__gnu_cxx17__normal_iteratorIPcNS0_12basic_stringIcSt11char_traitsIcESaIcEEEEEEESaISB_EE19_M_get_Tp_allocatorEv
FNA:28,0,_ZNSt12_Vector_baseINSt8__detail6_StateIcEESaIS2_EE19_M_get_Tp_allocatorEv
FNA:28,0,_ZNSt12_Vector_baseISt4pairIN9__gnu_cxx17__normal_iteratorIPcNSt7__cxx1112basic_stringIcSt11char_traitsIcESaIcEEEEEiESaISB_EE19_M_get_Tp_allocatorEv
FNA:28,0,_ZNSt12_Vector_baseISt4pairINSt7__cxx1112basic_stringIcSt11char_traitsIcESaIcEEES6_ESaIS7_EE19_M_get_Tp_allocatorEv
FNA:28,0,_ZNSt12_Vector_baseISt4pairIccESaIS1_EE19_M_get_Tp_allocatorEv
FNA:28,0,_ZNSt12_Vector_baseISt4pairIlSt6vectorINSt7__cxx119sub_matchIN9__gnu_cxx17__normal_iteratorIPcNS2_12basic_stringIcSt11char_traitsIcESaIcEEEEEEESaISD_EEESaISG_EE19_M_get_Tp_allocatorEv
FNA:28,0,_ZNSt12_Vector_baseIcSaIcEE19_M_get_Tp_allocatorEv
FNA:28,0,_ZNSt12_Vector_baseImSaImEE19_M_get_Tp_allocatorEv
FNL:29,305,306
FNA:29,22,_ZNKSt12_Vector_baseINSt7__cxx1112basic_stringIcSt11char_traitsIcESaIcEEESaIS5_EE19_M_get_Tp_allocatorEv
FNA:29,0,_ZNKSt12_Vector_baseINSt7__cxx1112regex_traitsIcE10_RegexMaskESaIS3_EE19_M_get_Tp_allocatorEv
FNA:29,0,_ZNKSt12_Vector_baseINSt7__cxx119sub_matchIN9__gnu_cxx17__normal_iteratorIPcNS0_12basic_stringIcSt11char_traitsIcESaIcEEEEEEESaISB_EE19_M_get_Tp_allocatorEv
FNA:29,0,_ZNKSt12_Vector_baseINSt8__detail6_StateIcEESaIS2_EE19_M_get_Tp_allocatorEv
FNA:29,0,_ZNKSt12_Vector_baseISt4pairINSt7__cxx1112basic_stringIcSt11char_traitsIcESaIcEEES6_ESaIS7_EE19_M_get_Tp_allocatorEv
FNA:29,0,_ZNKSt12_Vector_baseISt4pairIccESaIS1_EE19_M_get_Tp_allocatorEv
FNA:29,0,_ZNKSt12_Vector_baseISt4pairIlSt6vectorINSt7__cxx119sub_matchIN9__gnu_cxx17__normal_iteratorIPcNS2_12basic_stringIcSt11char_traitsIcESaIcEEEEEEESaISD_EEESaISG_EE19_M_get_Tp_allocatorEv
FNA:29,0,_ZNKSt12_Vector_baseIcSaIcEE19_M_get_Tp_allocatorEv
FNA:29,0,_ZNKSt12_Vector_baseImSaImEE19_M_get_Tp_allocatorEv
FNL:30,310,311
FNA:30,0,_ZNKSt12_Vector_baseINSt7__cxx119sub_matchIN9__gnu_cxx17__normal_iteratorIPcNS0_12basic_stringIcSt11char_traitsIcESaIcEEEEEEESaISB_EE13get_allocatorEv
FNL:31,314,314
FNA:31,14,_ZNSt12_Vector_baseINSt7__cxx1112basic_stringIcSt11char_traitsIcESaIcEEESaIS5_EEC2Ev
FNA:31,0,_ZNSt12_Vector_baseINSt7__cxx1112regex_traitsIcE10_RegexMaskESaIS3_EEC2Ev
FNA:31,0,_ZNSt12_Vector_baseINSt8__detail6_StateIcEESaIS2_EEC2Ev
FNA:31,0,_ZNSt12_Vector_baseISt4pairINSt7__cxx1112basic_stringIcSt11char_traitsIcESaIcEEES6_ESaIS7_EEC2Ev
FNA:31,0,_ZNSt12_Vector_baseISt4pairIccESaIS1_EEC2Ev
FNA:31,0,_ZNSt12_Vector_baseISt4pairIlSt6vectorINSt7__cxx119sub_matchIN9__gnu_cxx17__normal_iteratorIPcNS2_12basic_stringIcSt11char_traitsIcESaIcEEEEEEESaISD_EEESaISG_EEC2Ev
FNA:31,0,_ZNSt12_Vector_baseIcSaIcEEC2Ev
FNA:31,0,_ZNSt12_Vector_baseImSaImEEC2Ev
FNL:32,320,321
FNA:32,0,_ZNSt12_Vector_baseINSt7__cxx119sub_matchIN9__gnu_cxx17__normal_iteratorIPcNS0_12basic_stringIcSt11char_traitsIcESaIcEEEEEEESaISB_EEC2ERKSC_
FNA:32,0,_ZNSt12_Vector_baseIcSaIcEEC2ERKS0_
FNL:33,332,334
FNA:33,2,_ZNSt12_Vector_baseINSt7__cxx1112basic_stringIcSt11char_traitsIcESaIcEEESaIS5_EEC2EmRKS6_
FNA:33,0,_ZNSt12_Vector_baseINSt7__cxx1112regex_traitsIcE10_RegexMaskESaIS3_EEC2EmRKS4_
FNA:33,0,_ZNSt12_Vector_baseINSt7__cxx119sub_matchIN9__gnu_cxx17__normal_iteratorIPcNS0_12basic_stringIcSt11char_traitsIcESaIcEEEEEEESaISB_EEC2EmRKSC_
FNA:33,0,_ZNSt12_Vector_baseISt4pairIN9__gnu_cxx17__normal_iteratorIPcNSt7__cxx1112basic_stringIcSt11char_traitsIcESaIcEEEEEiESaISB_EEC2EmRKSC_
FNA:33,0,_ZNSt12_Vector_baseISt4pairINSt7__cxx1112basic_stringIcSt11char_traitsIcESaIcEEES6_ESaIS7_EEC2EmRKS8_
FNA:33,0,_ZNSt12_Vector_baseISt4pairIccESaIS1_EEC2EmRKS2_
FNA:33,0,_ZNSt12_Vector_baseIcSaIcEEC2EmRKS0_
FNL:34,337,337
FNA:34,0,_ZNSt12_Vector_baseINSt7__cxx1112basic_stringIcSt11char_traitsIcESaIcEEESaIS5_EEC2EOS7_
FNA:34,0,_ZNSt12_Vector_baseINSt7__cxx1112regex_traitsIcE10_RegexMaskESaIS3_EEC2EOS5_
FNA:34,0,_ZNSt12_Vector_baseINSt7__cxx119sub_matchIN9__gnu_cxx17__normal_iteratorIPcNS0_12basic_stringIcSt11char_traitsIcESaIcEEEEEEESaISB_EEC2EOSD_
FNA:34,0,_ZNSt12_Vector_baseISt4pairINSt7__cxx1112basic_stringIcSt11char_traitsIcESaIcEEES6_ESaIS7_EEC2EOS9_
FNA:34,0,_ZNSt12_Vector_baseISt4pairIccESaIS1_EEC2EOS3_
FNA:34,0,_ZNSt12_Vector_baseISt4pairIlSt6vectorINSt7__cxx119sub_matchIN9__gnu_cxx17__normal_iteratorIPcNS2_12basic_stringIcSt11char_traitsIcESaIcEEEEEEESaISD_EEESaISG_EEC2EOSI_
FNA:34,0,_ZNSt12_Vector_baseIcSaIcEEC2EOS1_
FNL:35,360,362
FNA:35,0,_ZNSt12_Vector_baseINSt7__cxx119sub_matchIN9__gnu_cxx17__normal_iteratorIPcNS0_12basic_stringIcSt11char_traitsIcESaIcEEEEEEESaISB_EEC2ERKSC_OSD_
FNL:36,366,370
FNA:36,16,_ZNSt12_Vector_baseINSt7__cxx1112basic_stringIcSt11char_traitsIcESaIcEEESaIS5_EED2Ev
FNA:36,0,_ZNSt12_Vector_baseINSt7__cxx1112regex_traitsIcE10_RegexMaskESaIS3_EED2Ev
FNA:36,0,_ZNSt12_Vector_baseINSt7__cxx119sub_matchIN9__gnu_cxx17__normal_iteratorIPcNS0_12basic_stringIcSt11char_traitsIcESaIcEEEEEEESaISB_EED2Ev
FNA:36,0,_ZNSt12_Vector_baseINSt8__detail6_StateIcEESaIS2_EED2Ev
FNA:36,0,_ZNSt12_Vector_baseISt4pairIN9__gnu_cxx17__normal_iteratorIPcNSt7__cxx1112basic_stringIcSt11char_traitsIcESaIcEEEEEiESaISB_EED2Ev
FNA:36,0,_ZNSt12_Vector_baseISt4pairINSt7__cxx1112basic_stringIcSt11char_traitsIcESaIcEEES6_ESaIS7_EED2Ev
FNA:36,0,_ZNSt12_Vector_baseISt4pairIccESaIS1_EED2Ev
FNA:36,0,_ZNSt12_Vector_baseISt4pairIlSt6vectorINSt7__cxx119sub_matchIN9__gnu_cxx17__normal_iteratorIPcNS2_12basic_stringIcSt11char_traitsIcESaIcEEEEEEESaISD_EEESaISG_EED2Ev
FNA:36,0,_ZNSt12_Vector_baseIcSaIcEED2Ev
FNA:36,0,_ZNSt12_Vector_baseImSaImEED2Ev
FNL:37,377,381
FNA:37,0,_ZNSt12_Vector_baseINSt7__cxx1112basic_stringIcSt11char_traitsIcESaIcEEESaIS5_EE11_M_allocateEm
FNA:37,0,_ZNSt12_Vector_baseINSt7__cxx1112regex_traitsIcE10_RegexMaskESaIS3_EE11_M_allocateEm
FNA:37,0,_ZNSt12_Vector_baseINSt7__cxx119sub_matchIN9__gnu_cxx17__normal_iteratorIPcNS0_12basic_stringIcSt11char_traitsIcESaIcEEEEEEESaISB_EE11_M_allocateEm
FNA:37,0,_ZNSt12_Vector_baseINSt8__detail6_StateIcEESaIS2_EE11_M_allocateEm
FNA:37,0,_ZNSt12_Vector_baseISt4pairIN9__gnu_cxx17__normal_iteratorIPcNSt7__cxx1112basic_stringIcSt11char_traitsIcESaIcEEEEEiESaISB_EE11_M_allocateEm
FNA:37,0,_ZNSt12_Vector_baseISt4pairINSt7__cxx1112basic_stringIcSt11char_traitsIcESaIcEEES6_ESaIS7_EE11_M_allocateEm
FNA:37,0,_ZNSt12_Vector_baseISt4pairIccESaIS1_EE11_M_allocateEm
FNA:37,0,_ZNSt12_Vector_baseISt4pairIlSt6vectorINSt7__cxx119sub_matchIN9__gnu_cxx17__normal_iteratorIPcNS2_12basic_stringIcSt11char_traitsIcESaIcEEEEEEESaISD_EEESaISG_EE11_M_allocateEm
FNA:37,0,_ZNSt12_Vector_baseIcSaIcEE11_M_allocateEm
FNA:37,0,_ZNSt12_Vector_baseImSaImEE11_M_allocateEm
FNL:38,385,390
FNA:38,0,_ZNSt12_Vector_baseINSt7__cxx1112basic_stringIcSt11char_traitsIcESaIcEEESaIS5_EE13_M_deallocateEPS5_m
FNA:38,0,_ZNSt12_Vector_baseINSt7__cxx1112regex_traitsIcE10_RegexMaskESaIS3_EE13_M_deallocateEPS3_m
FNA:38,0,_ZNSt12_Vector_baseINSt7__cxx119sub_matchIN9__gnu_cxx17__normal_iteratorIPcNS0_12basic_stringIcSt11char_traitsIcESaIcEEEEEEESaISB_EE13_M_deallocateEPSB_m
FNA:38,0,_ZNSt12_Vector_baseINSt8__detail6_StateIcEESaIS2_EE13_M_deallocateEPS2_m
FNA:38,0,_ZNSt12_Vector_baseISt4pairIN9__gnu_cxx17__normal_iteratorIPcNSt7__cxx1112basic_stringIcSt11char_traitsIcESaIcEEEEEiESaISB_EE13_M_deallocateEPSB_m
FNA:38,0,_ZNSt12_Vector_baseISt4pairINSt7__cxx1112basic_stringIcSt11char_traitsIcESaIcEEES6_ESaIS7_EE13_M_deallocateEPS7_m
FNA:38,0,_ZNSt12_Vector_baseISt4pairIccESaIS1_EE13_M_deallocateEPS1_m
FNA:38,0,_ZNSt12_Vector_baseISt4pairIlSt6vectorINSt7__cxx119sub_matchIN9__gnu_cxx17__normal_iteratorIPcNS2_12basic_stringIcSt11char_traitsIcESaIcEEEEEEESaISD_EEESaISG_EE13_M_deallocateEPSG_m
FNA:38,0,_ZNSt12_Vector_baseIcSaIcEE13_M_deallocateEPcm
FNA:38,0,_ZNSt12_Vector_baseImSaImEE13_M_deallocateEPmm
FNL:39,396,401
FNA:39,2,_ZNSt12_Vector_baseINSt7__cxx1112basic_stringIcSt11char_traitsIcESaIcEEESaIS5_EE17_M_create_storageEm
FNA:39,0,_ZNSt12_Vector_baseINSt7__cxx1112regex_traitsIcE10_RegexMaskESaIS3_EE17_M_create_storageEm
FNA:39,0,_ZNSt12_Vector_baseINSt7__cxx119sub_matchIN9__gnu_cxx17__normal_iteratorIPcNS0_12basic_stringIcSt11char_traitsIcESaIcEEEEEEESaISB_EE17_M_create_storageEm
FNA:39,0,_ZNSt12_Vector_baseISt4pairIN9__gnu_cxx17__normal_iteratorIPcNSt7__cxx1112basic_stringIcSt11char_traitsIcESaIcEEEEEiESaISB_EE17_M_create_storageEm
FNA:39,0,_ZNSt12_Vector_baseISt4pairINSt7__cxx1112basic_stringIcSt11char_traitsIcESaIcEEES6_ESaIS7_EE17_M_create_storageEm
FNA:39,0,_ZNSt12_Vector_baseISt4pairIccESaIS1_EE17_M_create_storageEm
FNA:39,0,_ZNSt12_Vector_baseIcSaIcEE17_M_create_storageEm
FNL:40,504,514
FNA:40,11,_ZNSt6vectorINSt7__cxx1112basic_stringIcSt11char_traitsIcESaIcEEESaIS5_EE11_S_relocateEPS5_S8_S8_RS6_
FNA:40,0,_ZNSt6vectorINSt7__cxx1112regex_traitsIcE10_RegexMaskESaIS3_EE11_S_relocateEPS3_S6_S6_RS4_
FNA:40,0,_ZNSt6vectorINSt8__detail6_StateIcEESaIS2_EE11_S_relocateEPS2_S5_S5_RS3_
FNA:40,0,_ZNSt6vectorISt4pairINSt7__cxx1112basic_stringIcSt11char_traitsIcESaIcEEES6_ESaIS7_EE11_S_relocateEPS7_SA_SA_RS8_
FNA:40,0,_ZNSt6vectorISt4pairIccESaIS1_EE11_S_relocateEPS1_S4_S4_RS2_
FNA:40,0,_ZNSt6vectorISt4pairIlS_INSt7__cxx119sub_matchIN9__gnu_cxx17__normal_iteratorIPcNS1_12basic_stringIcSt11char_traitsIcESaIcEEEEEEESaISC_EEESaISF_EE11_S_relocateEPSF_SI_SI_RSG_
FNA:40,0,_ZNSt6vectorIcSaIcEE11_S_relocateEPcS2_S2_RS0_
FNA:40,0,_ZNSt6vectorImSaImEE11_S_relocateEPmS2_S2_RS0_
FNL:41,531,531
FNA:41,14,_ZNSt6vectorINSt7__cxx1112basic_stringIcSt11char_traitsIcESaIcEEESaIS5_EEC1Ev
FNA:41,0,_ZNSt6vectorINSt7__cxx1112regex_traitsIcE10_RegexMaskESaIS3_EEC1Ev
FNA:41,0,_ZNSt6vectorINSt8__detail6_StateIcEESaIS2_EEC2Ev
FNA:41,0,_ZNSt6vectorISt4pairINSt7__cxx1112basic_stringIcSt11char_traitsIcESaIcEEES6_ESaIS7_EEC1Ev
FNA:41,0,_ZNSt6vectorISt4pairIccESaIS1_EEC1Ev
FNA:41,0,_ZNSt6vectorISt4pairIlS_INSt7__cxx119sub_matchIN9__gnu_cxx17__normal_iteratorIPcNS1_12basic_stringIcSt11char_traitsIcESaIcEEEEEEESaISC_EEESaISF_EEC1Ev
FNA:41,0,_ZNSt6vectorIcSaIcEEC1Ev
FNA:41,0,_ZNSt6vectorImSaImEEC1Ev
FNL:42,542,543
FNA:42,0,_ZNSt6vectorINSt7__cxx119sub_matchIN9__gnu_cxx17__normal_iteratorIPcNS0_12basic_stringIcSt11char_traitsIcESaIcEEEEEEESaISB_EEC1ERKSC_
FNA:42,0,_ZNSt6vectorINSt7__cxx119sub_matchIN9__gnu_cxx17__normal_iteratorIPcNS0_12basic_stringIcSt11char_traitsIcESaIcEEEEEEESaISB_EEC2ERKSC_
FNL:43,556,558
FNA:43,0,_ZNSt6vectorISt4pairIN9__gnu_cxx17__normal_iteratorIPcNSt7__cxx1112basic_stringIcSt11char_traitsIcESaIcEEEEEiESaISB_EEC1EmRKSC_
FNL:44,569,572
FNA:44,0,_ZNSt6vectorINSt7__cxx119sub_matchIN9__gnu_cxx17__normal_iteratorIPcNS0_12basic_stringIcSt11char_traitsIcESaIcEEEEEEESaISB_EEC1EmRKSB_RKSC_
FNL:45,601,609
FNA:45,2,_ZNSt6vectorINSt7__cxx1112basic_stringIcSt11char_traitsIcESaIcEEESaIS5_EEC1ERKS7_
FNA:45,0,_ZNSt6vectorINSt7__cxx1112regex_traitsIcE10_RegexMaskESaIS3_EEC1ERKS5_
FNA:45,0,_ZNSt6vectorINSt7__cxx119sub_matchIN9__gnu_cxx17__normal_iteratorIPcNS0_12basic_stringIcSt11char_traitsIcESaIcEEEEEEESaISB_EEC1ERKSD_
FNA:45,0,_ZNSt6vectorISt4pairINSt7__cxx1112basic_stringIcSt11char_traitsIcESaIcEEES6_ESaIS7_EEC1ERKS9_
FNA:45,0,_ZNSt6vectorISt4pairIccESaIS1_EEC1ERKS3_
FNA:45,0,_ZNSt6vectorIcSaIcEEC1ERKS1_
FNL:46,620,620
FNA:46,0,_ZNSt6vectorINSt7__cxx1112basic_stringIcSt11char_traitsIcESaIcEEESaIS5_EEC1EOS7_
FNA:46,0,_ZNSt6vectorINSt7__cxx1112regex_traitsIcE10_RegexMaskESaIS3_EEC1EOS5_
FNA:46,0,_ZNSt6vectorINSt7__cxx119sub_matchIN9__gnu_cxx17__normal_iteratorIPcNS0_12basic_stringIcSt11char_traitsIcESaIcEEEEEEESaISB_EEC1EOSD_
FNA:46,0,_ZNSt6vectorISt4pairINSt7__cxx1112basic_stringIcSt11char_traitsIcESaIcEEES6_ESaIS7_EEC1EOS9_
FNA:46,0,_ZNSt6vectorISt4pairIccESaIS1_EEC1EOS3_
FNA:46,0,_ZNSt6vectorISt4pairIlS_INSt7__cxx119sub_matchIN9__gnu_cxx17__normal_iteratorIPcNS1_12basic_stringIcSt11char_traitsIcESaIcEEEEEEESaISC_EEESaISF_EEC1EOSH_
FNA:46,0,_ZNSt6vectorIcSaIcEEC1EOS1_
FNL:47,635,637
FNA:47,0,_ZNSt6vectorINSt7__cxx119sub_matchIN9__gnu_cxx17__normal_iteratorIPcNS0_12basic_stringIcSt11char_traitsIcESaIcEEEEEEESaISB_EEC1EOSD_RKSC_St17integral_constantIbLb1EE
FNL:48,659,664
FNA:48,0,_ZNSt6vectorINSt7__cxx119sub_matchIN9__gnu_cxx17__normal_iteratorIPcNS0_12basic_stringIcSt11char_traitsIcESaIcEEEEEEESaISB_EEC1EOSD_RKSC_
FNL:49,707,713
FNA:49,0,_ZNSt6vectorIcSaIcEEC1IPKcvEET_S5_RKS0_
FNA:49,0,_ZNSt6vectorIcSaIcEEC1IPcvEET_S4_RKS0_
FNL:50,733,738
FNA:50,16,_ZNSt6vectorINSt7__cxx1112basic_stringIcSt11char_traitsIcESaIcEEESaIS5_EED1Ev
FNA:50,0,_ZNSt6vectorINSt7__cxx1112regex_traitsIcE10_RegexMaskESaIS3_EED1Ev
FNA:50,0,_ZNSt6vectorINSt7__cxx119sub_matchIN9__gnu_cxx17__normal_iteratorIPcNS0_12basic_stringIcSt11char_traitsIcESaIcEEEEEEESaISB_EED1Ev
FNA:50,0,_ZNSt6vectorINSt7__cxx119sub_matchIN9__gnu_cxx17__normal_iteratorIPcNS0_12basic_stringIcSt11char_traitsIcESaIcEEEEEEESaISB_EED2Ev
FNA:50,0,_ZNSt6vectorINSt8__detail6_StateIcEESaIS2_EED2Ev
FNA:50,0,_ZNSt6vectorISt4pairIN9__gnu_cxx17__normal_iteratorIPcNSt7__cxx1112basic_stringIcSt11char_traitsIcESaIcEEEEEiESaISB_EED1Ev
FNA:50,0,_ZNSt6vectorISt4pairINSt7__cxx1112basic_stringIcSt11char_traitsIcESaIcEEES6_ESaIS7_EED1Ev
FNA:50,0,_ZNSt6vectorISt4pairIccESaIS1_EED1Ev
FNA:50,0,_ZNSt6vectorISt4pairIlS_INSt7__cxx119sub_matchIN9__gnu_cxx17__normal_iteratorIPcNS1_12basic_stringIcSt11char_traitsIcESaIcEEEEEEESaISC_EEESaISF_EED1Ev
FNA:50,0,_ZNSt6vectorIcSaIcEED1Ev
FNA:50,0,_ZNSt6vectorImSaImEED1Ev
FNL:51,766,773
FNA:51,0,_ZNSt6vectorINSt7__cxx119sub_matchIN9__gnu_cxx17__normal_iteratorIPcNS0_12basic_stringIcSt11char_traitsIcESaIcEEEEEEESaISB_EEaSEOSD_
FNL:52,808,809
FNA:52,0,_ZNSt6vectorINSt7__cxx119sub_matchIN9__gnu_cxx17__normal_iteratorIPcNS0_12basic_stringIcSt11char_traitsIcESaIcEEEEEEESaISB_EE6assignEmRKSB_
FNL:53,873,874
FNA:53,0,_ZNSt6vectorINSt7__cxx1112basic_stringIcSt11char_traitsIcESaIcEEESaIS5_EE5beginEv
FNA:53,0,_ZNSt6vectorINSt7__cxx1112regex_traitsIcE10_RegexMaskESaIS3_EE5beginEv
FNA:53,0,_ZNSt6vectorINSt7__cxx119sub_matchIN9__gnu_cxx17__normal_iteratorIPcNS0_12basic_stringIcSt11char_traitsIcESaIcEEEEEEESaISB_EE5beginEv
FNA:53,0,_ZNSt6vectorINSt8__detail6_StateIcEESaIS2_EE5beginEv
FNA:53,0,_ZNSt6vectorISt4pairINSt7__cxx1112basic_stringIcSt11char_traitsIcESaIcEEES6_ESaIS7_EE5beginEv
FNA:53,0,_ZNSt6vectorISt4pairIccESaIS1_EE5beginEv
FNA:53,0,_ZNSt6vectorISt4pairIlS_INSt7__cxx119sub_matchIN9__gnu_cxx17__normal_iteratorIPcNS1_12basic_stringIcSt11char_traitsIcESaIcEEEEEEESaISC_EEESaISF_EE5beginEv
FNA:53,0,_ZNSt6vectorIcSaIcEE5beginEv
FNA:53,0,_ZNSt6vectorImSaImEE5beginEv
FNL:54,883,884
FNA:54,7,_ZNKSt6vectorINSt7__cxx1112basic_stringIcSt11char_traitsIcESaIcEEESaIS5_EE5beginEv
FNA:54,0,_ZNKSt6vectorINSt7__cxx1112regex_traitsIcE10_RegexMaskESaIS3_EE5beginEv
FNA:54,0,_ZNKSt6vectorINSt7__cxx119sub_matchIN9__gnu_cxx17__normal_iteratorIPcNS0_12basic_stringIcSt11char_traitsIcESaIcEEEEEEESaISB_EE5beginEv
FNA:54,0,_ZNKSt6vectorISt4pairINSt7__cxx1112basic_stringIcSt11char_traitsIcESaIcEEES6_ESaIS7_EE5beginEv
FNA:54,0,_ZNKSt6vectorISt4pairIccESaIS1_EE5beginEv
FNA:54,0,_ZNKSt6vectorISt4pairIlS_INSt7__cxx119sub_matchIN9__gnu_cxx17__normal_iteratorIPcNS1_12basic_stringIcSt11char_traitsIcESaIcEEEEEEESaISC_EEESaISF_EE5beginEv
FNA:54,0,_ZNKSt6vectorIcSaIcEE5beginEv
FNL:55,893,894
FNA:55,22,_ZNSt6vectorINSt7__cxx1112basic_stringIcSt11char_traitsIcESaIcEEESaIS5_EE3endEv
FNA:55,0,_ZNSt6vectorINSt7__cxx1112regex_traitsIcE10_RegexMaskESaIS3_EE3endEv
FNA:55,0,_ZNSt6vectorINSt7__cxx119sub_matchIN9__gnu_cxx17__normal_iteratorIPcNS0_12basic_stringIcSt11char_traitsIcESaIcEEEEEEESaISB_EE3endEv
FNA:55,0,_ZNSt6vectorINSt8__detail6_StateIcEESaIS2_EE3endEv
FNA:55,0,_ZNSt6vectorISt4pairINSt7__cxx1112basic_stringIcSt11char_traitsIcESaIcEEES6_ESaIS7_EE3endEv
FNA:55,0,_ZNSt6vectorISt4pairIccESaIS1_EE3endEv
FNA:55,0,_ZNSt6vectorISt4pairIlS_INSt7__cxx119sub_matchIN9__gnu_cxx17__normal_iteratorIPcNS1_12basic_stringIcSt11char_traitsIcESaIcEEEEEEESaISC_EEESaISF_EE3endEv
FNA:55,0,_ZNSt6vectorIcSaIcEE3endEv
FNA:55,0,_ZNSt6vectorImSaImEE3endEv
FNL:56,903,904
FNA:56,0,_ZNKSt6vectorINSt7__cxx1112basic_stringIcSt11char_traitsIcESaIcEEESaIS5_EE3endEv
FNA:56,0,_ZNKSt6vectorINSt7__cxx1112regex_traitsIcE10_RegexMaskESaIS3_EE3endEv
FNA:56,0,_ZNKSt6vectorINSt7__cxx119sub_matchIN9__gnu_cxx17__normal_iteratorIPcNS0_12basic_stringIcSt11char_traitsIcESaIcEEEEEEESaISB_EE3endEv
FNA:56,0,_ZNKSt6vectorISt4pairINSt7__cxx1112basic_stringIcSt11char_traitsIcESaIcEEES6_ESaIS7_EE3endEv
FNA:56,0,_ZNKSt6vectorISt4pairIccESaIS1_EE3endEv
FNA:56,0,_ZNKSt6vectorISt4pairIlS_INSt7__cxx119sub_matchIN9__gnu_cxx17__normal_iteratorIPcNS1_12basic_stringIcSt11char_traitsIcESaIcEEEEEEESaISC_EEESaISF_EE3endEv
FNA:56,0,_ZNKSt6vectorIcSaIcEE3endEv
FNL:57,954,955
FNA:57,0,_ZNKSt6vectorIcSaIcEE6cbeginEv
FNL:58,98,100
FNA:58,17,_ZNSt12_Vector_baseINSt7__cxx1112basic_stringIcSt11char_traitsIcESaIcEEESaIS5_EE17_Vector_impl_dataC2Ev
FNA:58,0,_ZNSt12_Vector_baseINSt7__cxx1112regex_traitsIcE10_RegexMaskESaIS3_EE17_Vector_impl_dataC2Ev
FNA:58,0,_ZNSt12_Vector_baseINSt7__cxx119sub_matchIN9__gnu_cxx17__normal_iteratorIPcNS0_12basic_stringIcSt11char_traitsIcESaIcEEEEEEESaISB_EE17_Vector_impl_dataC1Ev
FNA:58,0,_ZNSt12_Vector_baseINSt7__cxx119sub_matchIN9__gnu_cxx17__normal_iteratorIPcNS0_12basic_stringIcSt11char_traitsIcESaIcEEEEEEESaISB_EE17_Vector_impl_dataC2Ev
FNA:58,0,_ZNSt12_Vector_baseINSt8__detail6_StateIcEESaIS2_EE17_Vector_impl_dataC2Ev
FNA:58,0,_ZNSt12_Vector_baseISt4pairIN9__gnu_cxx17__normal_iteratorIPcNSt7__cxx1112basic_stringIcSt11char_traitsIcESaIcEEEEEiESaISB_EE17_Vector_impl_dataC2Ev
FNA:58,0,_ZNSt12_Vector_baseISt4pairINSt7__cxx1112basic_stringIcSt11char_traitsIcESaIcEEES6_ESaIS7_EE17_Vector_impl_dataC2Ev
FNA:58,0,_ZNSt12_Vector_baseISt4pairIccESaIS1_EE17_Vector_impl_dataC2Ev
FNA:58,0,_ZNSt12_Vector_baseISt4pairIlSt6vectorINSt7__cxx119sub_matchIN9__gnu_cxx17__normal_iteratorIPcNS2_12basic_stringIcSt11char_traitsIcESaIcEEEEEEESaISD_EEESaISG_EE17_Vector_impl_dataC2Ev
FNA:58,0,_ZNSt12_Vector_baseIcSaIcEE17_Vector_impl_dataC2Ev
FNA:58,0,_ZNSt12_Vector_baseImSaImEE17_Vector_impl_dataC2Ev
FNL:59,992,993
FNA:59,0,_ZNKSt6vectorINSt7__cxx1112basic_stringIcSt11char_traitsIcESaIcEEESaIS5_EE4sizeEv
FNA:59,0,_ZNKSt6vectorINSt7__cxx1112regex_traitsIcE10_RegexMaskESaIS3_EE4sizeEv
FNA:59,0,_ZNKSt6vectorINSt7__cxx119sub_matchIN9__gnu_cxx17__normal_iteratorIPcNS0_12basic_stringIcSt11char_traitsIcESaIcEEEEEEESaISB_EE4sizeEv
FNA:59,0,_ZNKSt6vectorINSt8__detail6_StateIcEESaIS2_EE4sizeEv
FNA:59,0,_ZNKSt6vectorISt4pairINSt7__cxx1112basic_stringIcSt11char_traitsIcESaIcEEES6_ESaIS7_EE4sizeEv
FNA:59,0,_ZNKSt6vectorISt4pairIccESaIS1_EE4sizeEv
FNA:59,0,_ZNKSt6vectorISt4pairIlS_INSt7__cxx119sub_matchIN9__gnu_cxx17__normal_iteratorIPcNS1_12basic_stringIcSt11char_traitsIcESaIcEEEEEEESaISC_EEESaISF_EE4sizeEv
FNA:59,0,_ZNKSt6vectorIcSaIcEE4sizeEv
FNA:59,0,_ZNKSt6vectorImSaImEE4sizeEv
FNL:60,998,999
FNA:60,19,_ZNKSt6vectorINSt7__cxx1112basic_stringIcSt11char_traitsIcESaIcEEESaIS5_EE8max_sizeEv
FNA:60,0,_ZNKSt6vectorINSt7__cxx1112regex_traitsIcE10_RegexMaskESaIS3_EE8max_sizeEv
FNA:60,0,_ZNKSt6vectorINSt8__detail6_StateIcEESaIS2_EE8max_sizeEv
FNA:60,0,_ZNKSt6vectorISt4pairINSt7__cxx1112basic_stringIcSt11char_traitsIcESaIcEEES6_ESaIS7_EE8max_sizeEv
FNA:60,0,_ZNKSt6vectorISt4pairIccESaIS1_EE8max_sizeEv
FNA:60,0,_ZNKSt6vectorISt4pairIlS_INSt7__cxx119sub_matchIN9__gnu_cxx17__normal_iteratorIPcNS1_12basic_stringIcSt11char_traitsIcESaIcEEEEEEESaISC_EEESaISF_EE8max_sizeEv
FNA:60,0,_ZNKSt6vectorIcSaIcEE8max_sizeEv
FNA:60,0,_ZNKSt6vectorImSaImEE8max_sizeEv
FNF:61
FNH:17
DA:98,17
DA:99,17
DA:100,17
DA:104,0
DA:105,0
DA:106,0
DA:107,0
DA:112,0
DA:114,0
DA:115,0
DA:116,0
DA:117,0
DA:121,0
DA:125,0
DA:126,0
DA:127,0
DA:128,0
DA:129,0
DA:136,14
DA:141,14
DA:142,14
DA:145,3
DA:146,3
DA:147,3
DA:153,0
DA:154,0
DA:155,0
DA:163,0
DA:164,0
DA:165,0
DA:300,39
DA:301,39
DA:305,22
DA:306,22
DA:310,0
DA:311,0
DA:314,14
DA:320,0
DA:321,0
DA:332,2
DA:333,2
DA:334,2
DA:337,0
DA:360,0
DA:361,0
DA:362,0
DA:366,16
DA:368,16
DA:369,16
DA:370,16
DA:377,0
DA:380,0
DA:385,0
DA:388,0
DA:389,0
DA:390,0
DA:396,2
DA:398,2
DA:399,2
DA:400,2
DA:401,2
DA:504,11
DA:509,11
DA:531,14
DA:542,0
DA:543,0
DA:556,0
DA:557,0
DA:558,0
DA:569,0
DA:571,0
DA:572,0
DA:601,2
DA:603,4
DA:605,2
DA:606,2
DA:608,2
DA:609,2
DA:620,0
DA:635,0
DA:636,0
DA:637,0
DA:659,0
DA:663,0
DA:664,0
DA:707,0
DA:709,0
DA:711,0
DA:712,0
DA:713,0
DA:733,16
DA:735,16
DA:736,16
DA:738,16
DA:766,0
DA:768,0
DA:771,0
DA:772,0
DA:808,0
DA:809,0
DA:873,0
DA:874,0
DA:883,7
DA:884,7
DA:893,22
DA:894,22
DA:903,0
DA:904,0
DA:954,0
DA:955,0
DA:992,0
DA:993,0
DA:998,19
DA:999,19
DA:1078,0
DA:1080,0
DA:1081,0
DA:1090,0
DA:1091,0
DA:1128,0
DA:1131,0
DA:1147,0
DA:1150,0
DA:1235,0
DA:1238,0
DA:1262,0
DA:1263,0
DA:1283,0
DA:1285,0
DA:1288,0
DA:1290,0
DA:1294,0
DA:1295,0
DA:1300,0
DA:1301,0
DA:1324,0
DA:1327,0
DA:1328,0
DA:1330,0
DA:1564,0
DA:1566,0
DA:1567,0
DA:1568,0
DA:1607,0
DA:1608,0
DA:1618,0
DA:1621,0
DA:1624,0
DA:1625,0
DA:1626,0
DA:1628,0
DA:1630,0
DA:1631,0
DA:1689,0
DA:1692,0
DA:1694,0
DA:1695,0
DA:1696,0
DA:1697,0
DA:1699,0
DA:1700,0
DA:1706,0
DA:1708,0
DA:1709,0
DA:1710,0
DA:1711,0
DA:1717,0
DA:1719,0
DA:1720,0
DA:1721,0
DA:1722,0
DA:1906,0
DA:1908,0
DA:1909,0
DA:1911,0
DA:1912,0
DA:1917,0
DA:1919,0
DA:1920,0
DA:1922,0
DA:1926,19
DA:1931,19
DA:1933,19
DA:1934,19
DA:1943,0
DA:1945,0
DA:1947,0
DA:1948,0
DA:1949,0
DA:1952,0
DA:1969,0
DA:1971,0
DA:1972,0
DA:1973,0
DA:1974,0
DA:1975,0
DA:2000,0
DA:2001,0
LF:198
LH:49
end_of_record
TN:
SF:/opt/local/include/gcc14/c++/bits/unique_ptr.h
FNL:0,191,191
FNA:0,0,_ZNSt15__uniq_ptr_implINSt7__cxx1112basic_stringIcSt11char_traitsIcESaIcEEESt14default_deleteIS5_EE6_M_ptrEv
FNA:0,90,_ZNSt15__uniq_ptr_implINSt7__cxx1118basic_stringstreamIcSt11char_traitsIcESaIcEEESt14default_deleteIS5_EE6_M_ptrEv
FNL:1,193,193
FNA:1,0,_ZNKSt15__uniq_ptr_implINSt7__cxx1112basic_stringIcSt11char_traitsIcESaIcEEESt14default_deleteIS5_EE6_M_ptrEv
FNL:2,195,195
FNA:2,0,_ZNSt15__uniq_ptr_implINSt7__cxx1112basic_stringIcSt11char_traitsIcESaIcEEESt14default_deleteIS5_EE10_M_deleterEv
FNA:2,90,_ZNSt15__uniq_ptr_implINSt7__cxx1118basic_stringstreamIcSt11char_traitsIcESaIcEEESt14default_deleteIS5_EE10_M_deleterEv
FNL:3,392,400
FNA:3,0,_ZNSt10unique_ptrINSt7__cxx1112basic_stringIcSt11char_traitsIcESaIcEEESt14default_deleteIS5_EED1Ev
FNA:3,0,_ZNSt10unique_ptrINSt7__cxx1118basic_stringstreamIcSt11char_traitsIcESaIcEEESt14default_deleteIS5_EED1Ev
FNL:4,454,458
FNA:4,0,_ZNKSt10unique_ptrINSt7__cxx1112basic_stringIcSt11char_traitsIcESaIcEEESt14default_deleteIS5_EEptEv
FNL:5,463,464
FNA:5,0,_ZNKSt10unique_ptrINSt7__cxx1112basic_stringIcSt11char_traitsIcESaIcEEESt14default_deleteIS5_EE3getEv
FNL:6,469,470
FNA:6,0,_ZNSt10unique_ptrINSt7__cxx1112basic_stringIcSt11char_traitsIcESaIcEEESt14default_deleteIS5_EE11get_deleterEv
FNA:6,90,_ZNSt10unique_ptrINSt7__cxx1118basic_stringstreamIcSt11char_traitsIcESaIcEEESt14default_deleteIS5_EE11get_deleterEv
FNL:7,87,94
FNA:7,0,_ZNKSt14default_deleteINSt7__cxx1112basic_stringIcSt11char_traitsIcESaIcEEEEclEPS5_
FNA:7,90,_ZNKSt14default_deleteINSt7__cxx1118basic_stringstreamIcSt11char_traitsIcESaIcEEEEclEPS5_
FNF:8
FNH:4
DA:87,90
DA:93,90
DA:94,90
DA:191,90
DA:193,0
DA:195,90
DA:392,0
DA:396,0
DA:397,0
DA:398,0
DA:399,0
DA:400,0
DA:454,0
DA:457,0
DA:463,0
DA:464,0
DA:469,90
DA:470,90
LF:18
LH:7
end_of_record
TN:
SF:/opt/local/include/gcc14/c++/bits/unordered_map.h
FNL:0,148,148
FNA:0,0,_ZNSt13unordered_mapINSt7__cxx1112basic_stringIcSt11char_traitsIcESaIcEEENS0_4listIS5_SaIS5_EEESt4hashIS5_ESt8equal_toIS5_ESaISt4pairIKS5_S8_EEEC1Ev
FNA:0,0,_ZNSt13unordered_mapINSt7__cxx1112basic_stringIcSt11char_traitsIcESaIcEEEbSt4hashIS5_ESt8equal_toIS5_ESaISt4pairIKS5_bEEEC1Ev
FNL:1,188,188
FNA:1,0,_ZNSt13unordered_mapINSt7__cxx1112basic_stringIcSt11char_traitsIcESaIcEEENS0_4listIS5_SaIS5_EEESt4hashIS5_ESt8equal_toIS5_ESaISt4pairIKS5_S8_EEEC1ERKSH_
FNL:2,317,318
FNA:2,0,_ZNKSt13unordered_mapINSt7__cxx1112basic_stringIcSt11char_traitsIcESaIcEEENS0_4listIS5_SaIS5_EEESt4hashIS5_ESt8equal_toIS5_ESaISt4pairIKS5_S8_EEE4sizeEv
FNA:2,0,_ZNKSt13unordered_mapINSt7__cxx1112basic_stringIcSt11char_traitsIcESaIcEEEbSt4hashIS5_ESt8equal_toIS5_ESaISt4pairIKS5_bEEE4sizeEv
FNL:3,332,333
FNA:3,0,_ZNSt13unordered_mapINSt7__cxx1112basic_stringIcSt11char_traitsIcESaIcEEENS0_4listIS5_SaIS5_EEESt4hashIS5_ESt8equal_toIS5_ESaISt4pairIKS5_S8_EEE5beginEv
FNA:3,0,_ZNSt13unordered_mapINSt7__cxx1112basic_stringIcSt11char_traitsIcESaIcEEEbSt4hashIS5_ESt8equal_toIS5_ESaISt4pairIKS5_bEEE5beginEv
FNL:4,354,355
FNA:4,0,_ZNSt13unordered_mapINSt7__cxx1112basic_stringIcSt11char_traitsIcESaIcEEENS0_4listIS5_SaIS5_EEESt4hashIS5_ESt8equal_toIS5_ESaISt4pairIKS5_S8_EEE3endEv
FNA:4,0,_ZNSt13unordered_mapINSt7__cxx1112basic_stringIcSt11char_traitsIcESaIcEEEbSt4hashIS5_ESt8equal_toIS5_ESaISt4pairIKS5_bEEE3endEv
FNL:5,876,877
FNA:5,0,_ZNSt13unordered_mapINSt7__cxx1112basic_stringIcSt11char_traitsIcESaIcEEENS0_4listIS5_SaIS5_EEESt4hashIS5_ESt8equal_toIS5_ESaISt4pairIKS5_S8_EEE4findERSE_
FNL:6,987,988
FNA:6,0,_ZNSt13unordered_mapINSt7__cxx1112basic_stringIcSt11char_traitsIcESaIcEEENS0_4listIS5_SaIS5_EEESt4hashIS5_ESt8equal_toIS5_ESaISt4pairIKS5_S8_EEEixERSE_
FNA:6,0,_ZNSt13unordered_mapINSt7__cxx1112basic_stringIcSt11char_traitsIcESaIcEEEbSt4hashIS5_ESt8equal_toIS5_ESaISt4pairIKS5_bEEEixERSB_
FNF:7
FNH:0
DA:148,0
DA:188,0
DA:317,0
DA:318,0
DA:332,0
DA:333,0
DA:354,0
DA:355,0
DA:876,0
DA:877,0
DA:987,0
DA:988,0
LF:12
LH:0
end_of_record
TN:
SF:/opt/local/include/gcc14/c++/bits/vector.tcc
FNL:0,111,127
FNA:0,0,_ZNSt6vectorINSt8__detail6_StateIcEESaIS2_EE12emplace_backIJS2_EEERS2_DpOT_
FNA:0,0,_ZNSt6vectorISt4pairINSt7__cxx1112basic_stringIcSt11char_traitsIcESaIcEEES6_ESaIS7_EE12emplace_backIJS7_EEERS7_DpOT_
FNA:0,0,_ZNSt6vectorISt4pairIccESaIS1_EE12emplace_backIJS1_EEERS1_DpOT_
FNA:0,0,_ZNSt6vectorISt4pairIlS_INSt7__cxx119sub_matchIN9__gnu_cxx17__normal_iteratorIPcNS1_12basic_stringIcSt11char_traitsIcESaIcEEEEEEESaISC_EEESaISF_EE12emplace_backIJRlRKSE_EEERSF_DpOT_
FNA:0,0,_ZNSt6vectorIcSaIcEE12emplace_backIJcEEERcDpOT_
FNL:1,195,205
FNA:1,0,_ZNSt6vectorIcSaIcEE8_M_eraseEN9__gnu_cxx17__normal_iteratorIPcS1_EES5_
FNL:2,210,265
FNA:2,0,_ZNSt6vectorINSt7__cxx119sub_matchIN9__gnu_cxx17__normal_iteratorIPcNS0_12basic_stringIcSt11char_traitsIcESaIcEEEEEEESaISB_EEaSERKSD_
FNL:3,270,293
FNA:3,0,_ZNSt6vectorINSt7__cxx119sub_matchIN9__gnu_cxx17__normal_iteratorIPcNS0_12basic_stringIcSt11char_traitsIcESaIcEEEEEEESaISB_EE14_M_fill_assignEmRKSB_
FNL:4,581,695
FNA:4,0,_ZNSt6vectorINSt7__cxx1112basic_stringIcSt11char_traitsIcESaIcEEESaIS5_EE17_M_realloc_appendIJRKS5_EEEvDpOT_
FNA:4,0,_ZNSt6vectorINSt7__cxx1112regex_traitsIcE10_RegexMaskESaIS3_EE17_M_realloc_appendIJRKS3_EEEvDpOT_
FNA:4,0,_ZNSt6vectorINSt8__detail6_StateIcEESaIS2_EE17_M_realloc_appendIJS2_EEEvDpOT_
FNA:4,0,_ZNSt6vectorISt4pairINSt7__cxx1112basic_stringIcSt11char_traitsIcESaIcEEES6_ESaIS7_EE17_M_realloc_appendIJS7_EEEvDpOT_
FNA:4,0,_ZNSt6vectorISt4pairIccESaIS1_EE17_M_realloc_appendIJS1_EEEvDpOT_
FNA:4,0,_ZNSt6vectorISt4pairIlS_INSt7__cxx119sub_matchIN9__gnu_cxx17__normal_iteratorIPcNS1_12basic_stringIcSt11char_traitsIcESaIcEEEEEEESaISC_EEESaISF_EE17_M_realloc_appendIJRlRKSE_EEEvDpOT_
FNA:4,0,_ZNSt6vectorIcSaIcEE17_M_realloc_appendIJcEEEvDpOT_
FNA:4,0,_ZNSt6vectorImSaImEE17_M_realloc_appendIJRKmEEEvDpOT_
FNL:5,607,609
FNA:5,0,_ZZNSt6vectorINSt7__cxx1112basic_stringIcSt11char_traitsIcESaIcEEESaIS5_EE17_M_realloc_appendIJRKS5_EEEvDpOT_EN6_GuardC1EPS5_mRS6_
FNA:5,0,_ZZNSt6vectorINSt7__cxx1112regex_traitsIcE10_RegexMaskESaIS3_EE17_M_realloc_appendIJRKS3_EEEvDpOT_EN6_GuardC1EPS3_mRS4_
FNA:5,0,_ZZNSt6vectorINSt8__detail6_StateIcEESaIS2_EE17_M_realloc_appendIJS2_EEEvDpOT_EN6_GuardC1EPS2_mRS3_
FNA:5,0,_ZZNSt6vectorISt4pairINSt7__cxx1112basic_stringIcSt11char_traitsIcESaIcEEES6_ESaIS7_EE17_M_realloc_appendIJS7_EEEvDpOT_EN6_GuardC1EPS7_mRS8_
FNA:5,0,_ZZNSt6vectorISt4pairIccESaIS1_EE17_M_realloc_appendIJS1_EEEvDpOT_EN6_GuardC1EPS1_mRS2_
FNA:5,0,_ZZNSt6vectorISt4pairIlS_INSt7__cxx119sub_matchIN9__gnu_cxx17__normal_iteratorIPcNS1_12basic_stringIcSt11char_traitsIcESaIcEEEEEEESaISC_EEESaISF_EE17_M_realloc_appendIJRlRKSE_EEEvDpOT_EN6_GuardC1EPSF_mRSG_
FNA:5,0,_ZZNSt6vectorIcSaIcEE17_M_realloc_appendIJcEEEvDpOT_EN6_GuardC1EPcmRS0_
FNA:5,0,_ZZNSt6vectorImSaImEE17_M_realloc_appendIJRKmEEEvDpOT_EN6_GuardC1EPmmRS0_
FNL:6,612,617
FNA:6,0,_ZZNSt6vectorINSt7__cxx1112basic_stringIcSt11char_traitsIcESaIcEEESaIS5_EE17_M_realloc_appendIJRKS5_EEEvDpOT_EN6_GuardD1Ev
FNA:6,0,_ZZNSt6vectorINSt7__cxx1112regex_traitsIcE10_RegexMaskESaIS3_EE17_M_realloc_appendIJRKS3_EEEvDpOT_EN6_GuardD1Ev
FNA:6,0,_ZZNSt6vectorINSt8__detail6_StateIcEESaIS2_EE17_M_realloc_appendIJS2_EEEvDpOT_EN6_GuardD1Ev
FNA:6,0,_ZZNSt6vectorISt4pairINSt7__cxx1112basic_stringIcSt11char_traitsIcESaIcEEES6_ESaIS7_EE17_M_realloc_appendIJS7_EEEvDpOT_EN6_GuardD1Ev
FNA:6,0,_ZZNSt6vectorISt4pairIccESaIS1_EE17_M_realloc_appendIJS1_EEEvDpOT_EN6_GuardD1Ev
FNA:6,0,_ZZNSt6vectorISt4pairIlS_INSt7__cxx119sub_matchIN9__gnu_cxx17__normal_iteratorIPcNS1_12basic_stringIcSt11char_traitsIcESaIcEEEEEEESaISC_EEESaISF_EE17_M_realloc_appendIJRlRKSE_EEEvDpOT_EN6_GuardD1Ev
FNA:6,0,_ZZNSt6vectorIcSaIcEE17_M_realloc_appendIJcEEEvDpOT_EN6_GuardD1Ev
FNA:6,0,_ZZNSt6vectorImSaImEE17_M_realloc_appendIJRKmEEEvDpOT_EN6_GuardD1Ev
FNF:7
FNH:0
DA:111,0
DA:114,0
DA:117,0
DA:119,0
DA:123,0
DA:125,0
DA:195,0
DA:198,0
DA:200,0
DA:201,0
DA:202,0
DA:204,0
DA:210,0
DA:213,0
DA:217,0
DA:219,0
DA:220,0
DA:223,0
DA:224,0
DA:225,0
DA:226,0
DA:227,0
DA:228,0
DA:229,0
DA:231,0
DA:232,0
DA:235,0
DA:236,0
DA:238,0
DA:240,0
DA:241,0
DA:242,0
DA:243,0
DA:244,0
DA:245,0
DA:246,0
DA:248,0
DA:250,0
DA:251,0
DA:255,0
DA:257,0
DA:258,0
DA:260,0
DA:262,0
DA:264,0
DA:270,0
DA:273,0
DA:274,0
DA:276,0
DA:277,0
DA:278,0
DA:279,0
DA:280,0
DA:281,0
DA:283,0
DA:284,0
DA:286,0
DA:287,0
DA:288,0
DA:292,0
DA:293,0
DA:581,0
DA:590,0
DA:591,0
DA:592,0
DA:593,0
DA:594,0
DA:595,0
DA:596,0
DA:597,0
DA:607,0
DA:608,0
DA:609,0
DA:612,0
DA:614,0
DA:616,0
DA:617,0
DA:624,0
DA:634,0
DA:635,0
DA:647,0
DA:648,0
DA:649,0
DA:686,0
DA:687,0
DA:688,0
DA:692,0
DA:693,0
DA:694,0
DA:695,0
LF:90
LH:0
end_of_record
TN:
SF:/opt/local/include/gcc14/c++/bitset
FNL:0,106,107
FNA:0,0,_ZNSt12_Base_bitsetILm4EE12_S_whichwordEm
FNL:1,114,115
FNA:1,0,_ZNSt12_Base_bitsetILm4EE11_S_whichbitEm
FNL:2,1146,1148
FNA:2,0,_ZNKSt6bitsetILm256EE15_Unchecked_testEm
FNL:3,118,119
FNA:3,0,_ZNSt12_Base_bitsetILm4EE10_S_maskbitEm
FNL:4,122,123
FNA:4,0,_ZNSt12_Base_bitsetILm4EE10_M_getwordEm
FNL:5,1252,1253
FNA:5,0,_ZNSt6bitsetILm256EEixEm
FNL:6,1256,1257
FNA:6,0,_ZNKSt6bitsetILm256EEixEm
FNL:7,126,127
FNA:7,0,_ZNKSt12_Base_bitsetILm4EE10_M_getwordEm
FNL:8,1371,1372
FNA:8,0,_ZNKSt6bitsetILm256EE4sizeEv
FNL:9,872,876
FNA:9,0,_ZNSt6bitsetILm256EE9referenceC1ERS0_m
FNL:10,885,886
FNA:10,0,_ZNSt6bitsetILm256EE9referenceD1Ev
FNL:11,89,90
FNA:11,0,_ZNSt12_Base_bitsetILm4EEC2Ev
FNL:12,891,898
FNA:12,0,_ZNSt6bitsetILm256EE9referenceaSEb
FNL:13,936,937
FNA:13,0,_ZNSt6bitsetILm256EEC1Ev
FNF:14
FNH:0
DA:89,0
DA:90,0
DA:106,0
DA:107,0
DA:114,0
DA:115,0
DA:118,0
DA:119,0
DA:122,0
DA:123,0
DA:126,0
DA:127,0
DA:872,0
DA:874,0
DA:875,0
DA:876,0
DA:885,0
DA:886,0
DA:891,0
DA:893,0
DA:894,0
DA:896,0
DA:897,0
DA:936,0
DA:937,0
DA:1146,0
DA:1147,0
DA:1148,0
DA:1252,0
DA:1253,0
DA:1256,0
DA:1257,0
DA:1371,0
DA:1372,0
LF:34
LH:0
end_of_record
TN:
SF:/opt/local/include/gcc14/c++/ext/aligned_buffer.h
FNL:0,104,107
FNA:0,0,_ZN9__gnu_cxx16__aligned_bufferINSt8__detail4_NFAINSt7__cxx1112regex_traitsIcEEEEE7_M_addrEv
FNA:0,0,_ZN9__gnu_cxx16__aligned_bufferISt4pairIKNSt7__cxx1112basic_stringIcSt11char_traitsIcESaIcEEENS2_4listIS7_SaIS7_EEEEE7_M_addrEv
FNA:0,0,_ZN9__gnu_cxx16__aligned_bufferISt4pairIKNSt7__cxx1112basic_stringIcSt11char_traitsIcESaIcEEEbEE7_M_addrEv
FNL:1,110,113
FNA:1,0,_ZNK9__gnu_cxx16__aligned_bufferISt4pairIKNSt7__cxx1112basic_stringIcSt11char_traitsIcESaIcEEENS2_4listIS7_SaIS7_EEEEE7_M_addrEv
FNA:1,0,_ZNK9__gnu_cxx16__aligned_bufferISt4pairIKNSt7__cxx1112basic_stringIcSt11char_traitsIcESaIcEEEbEE7_M_addrEv
FNL:2,116,117
FNA:2,0,_ZN9__gnu_cxx16__aligned_bufferINSt8__detail4_NFAINSt7__cxx1112regex_traitsIcEEEEE6_M_ptrEv
FNA:2,0,_ZN9__gnu_cxx16__aligned_bufferISt4pairIKNSt7__cxx1112basic_stringIcSt11char_traitsIcESaIcEEENS2_4listIS7_SaIS7_EEEEE6_M_ptrEv
FNA:2,0,_ZN9__gnu_cxx16__aligned_bufferISt4pairIKNSt7__cxx1112basic_stringIcSt11char_traitsIcESaIcEEEbEE6_M_ptrEv
FNL:3,120,121
FNA:3,0,_ZNK9__gnu_cxx16__aligned_bufferISt4pairIKNSt7__cxx1112basic_stringIcSt11char_traitsIcESaIcEEENS2_4listIS7_SaIS7_EEEEE6_M_ptrEv
FNA:3,0,_ZNK9__gnu_cxx16__aligned_bufferISt4pairIKNSt7__cxx1112basic_stringIcSt11char_traitsIcESaIcEEEbEE6_M_ptrEv
FNL:4,64,65
FNA:4,0,_ZN9__gnu_cxx16__aligned_membufINSt7__cxx1112basic_stringIcSt11char_traitsIcESaIcEEEE7_M_addrEv
FNA:4,0,_ZN9__gnu_cxx16__aligned_membufISt4pairIKllEE7_M_addrEv
FNA:4,0,_ZN9__gnu_cxx16__aligned_membufISt8functionIFbcEEE7_M_addrEv
FNA:4,0,_ZN9__gnu_cxx16__aligned_membufIcE7_M_addrEv
FNL:5,68,69
FNA:5,0,_ZNK9__gnu_cxx16__aligned_membufINSt7__cxx1112basic_stringIcSt11char_traitsIcESaIcEEEE7_M_addrEv
FNA:5,0,_ZNK9__gnu_cxx16__aligned_membufISt4pairIKllEE7_M_addrEv
FNA:5,0,_ZNK9__gnu_cxx16__aligned_membufISt8functionIFbcEEE7_M_addrEv
FNL:6,72,73
FNA:6,0,_ZN9__gnu_cxx16__aligned_membufINSt7__cxx1112basic_stringIcSt11char_traitsIcESaIcEEEE6_M_ptrEv
FNA:6,0,_ZN9__gnu_cxx16__aligned_membufISt4pairIKllEE6_M_ptrEv
FNA:6,0,_ZN9__gnu_cxx16__aligned_membufIcE6_M_ptrEv
FNL:7,76,77
FNA:7,0,_ZNK9__gnu_cxx16__aligned_membufINSt7__cxx1112basic_stringIcSt11char_traitsIcESaIcEEEE6_M_ptrEv
FNA:7,0,_ZNK9__gnu_cxx16__aligned_membufISt4pairIKllEE6_M_ptrEv
FNF:8
FNH:0
DA:64,0
DA:65,0
DA:68,0
DA:69,0
DA:72,0
DA:73,0
DA:76,0
DA:77,0
DA:104,0
DA:106,0
DA:110,0
DA:112,0
DA:116,0
DA:117,0
DA:120,0
DA:121,0
LF:16
LH:0
end_of_record
TN:
SF:/opt/local/include/gcc14/c++/ext/alloc_traits.h
FNF:0
FNH:0
DA:98,4
DA:106,0
DA:118,0
LF:3
LH:1
end_of_record
TN:
SF:/opt/local/include/gcc14/c++/ext/atomicity.h
FNF:0
FNH:0
DA:54,0
DA:66,0
DA:84,0
DA:85,0
DA:86,0
DA:98,0
DA:99,0
DA:101,0
LF:8
LH:0
end_of_record
TN:
SF:/opt/local/include/gcc14/c++/initializer_list
FNL:0,69,69
FNA:0,0,_ZNKSt16initializer_listINSt7__cxx1112basic_stringIcSt11char_traitsIcESaIcEEEE4sizeEv
FNL:1,73,73
FNA:1,0,_ZNKSt16initializer_listINSt7__cxx1112basic_stringIcSt11char_traitsIcESaIcEEEE5beginEv
FNL:2,77,77
FNA:2,0,_ZNKSt16initializer_listINSt7__cxx1112basic_stringIcSt11char_traitsIcESaIcEEEE3endEv
FNF:3
FNH:0
DA:69,0
DA:73,0
DA:77,0
LF:3
LH:0
end_of_record
TN:
SF:/opt/local/include/gcc14/c++/iostream
FNF:0
FNH:0
LF:0
LH:0
end_of_record
TN:
SF:/opt/local/include/gcc14/c++/new
FNL:0,179,180
FNA:0,46,_ZnwmPv
FNL:1,185,185
FNA:1,0,_ZdlPvS_
FNF:2
FNH:1
DA:179,46
DA:180,46
DA:185,0
LF:3
LH:2
end_of_record
TN:
SF:/opt/local/include/gcc14/c++/tuple
FNL:0,133,133
FNA:0,0,_ZNSt10_Head_baseILm1ESt14default_deleteINSt7__cxx1112basic_stringIcSt11char_traitsIcESaIcEEEELb1EE7_M_headERS8_
FNA:0,90,_ZNSt10_Head_baseILm1ESt14default_deleteINSt7__cxx1118basic_stringstreamIcSt11char_traitsIcESaIcEEEELb1EE7_M_headERS8_
FNL:1,1472,1474
FNA:1,0,_ZNSt5tupleIJRKNSt7__cxx1112basic_stringIcSt11char_traitsIcESaIcEEEEEC1ILb1ELb1EEES7_
FNA:1,0,_ZNSt5tupleIJRKlEEC1ILb1ELb1EEES1_
FNL:2,1503,1503
FNA:2,0,_ZNSt5tupleIJRKNSt7__cxx1112basic_stringIcSt11char_traitsIcESaIcEEEEEC1EOS8_
FNA:2,0,_ZNSt5tupleIJRKlEEC1EOS2_
FNL:3,201,202
FNA:3,0,_ZNSt10_Head_baseILm0ERKNSt7__cxx1112basic_stringIcSt11char_traitsIcESaIcEEELb0EEC2ES7_
FNA:3,0,_ZNSt10_Head_baseILm0ERKlLb0EEC2ES1_
FNL:4,242,242
FNA:4,0,_ZNSt10_Head_baseILm0EPNSt7__cxx1112basic_stringIcSt11char_traitsIcESaIcEEELb0EE7_M_headERS7_
FNA:4,180,_ZNSt10_Head_baseILm0EPNSt7__cxx1118basic_stringstreamIcSt11char_traitsIcESaIcEEELb0EE7_M_headERS7_
FNA:4,0,_ZNSt10_Head_baseILm0ERKNSt7__cxx1112basic_stringIcSt11char_traitsIcESaIcEEELb0EE7_M_headERS8_
FNA:4,0,_ZNSt10_Head_baseILm0ERKlLb0EE7_M_headERS2_
FNL:5,2427,2428
FNA:5,0,_ZSt12__get_helperILm0EPNSt7__cxx1112basic_stringIcSt11char_traitsIcESaIcEEEJSt14default_deleteIS5_EEERT0_RSt11_Tuple_implIXT_EJS9_DpT1_EE
FNA:5,180,_ZSt12__get_helperILm0EPNSt7__cxx1118basic_stringstreamIcSt11char_traitsIcESaIcEEEJSt14default_deleteIS5_EEERT0_RSt11_Tuple_implIXT_EJS9_DpT1_EE
FNA:5,0,_ZSt12__get_helperILm0ERKNSt7__cxx1112basic_stringIcSt11char_traitsIcESaIcEEEJEERT0_RSt11_Tuple_implIXT_EJS8_DpT1_EE
FNA:5,0,_ZSt12__get_helperILm0ERKlJEERT0_RSt11_Tuple_implIXT_EJS2_DpT1_EE
FNA:5,0,_ZSt12__get_helperILm1ESt14default_deleteINSt7__cxx1112basic_stringIcSt11char_traitsIcESaIcEEEEJEERT0_RSt11_Tuple_implIXT_EJS8_DpT1_EE
FNA:5,0,_ZSt12__get_helperILm1ESt14default_deleteINSt7__cxx1118basic_stringstreamIcSt11char_traitsIcESaIcEEEEJEERT0_RSt11_Tuple_implIXT_EJS8_DpT1_EE
FNL:6,2432,2433
FNA:6,0,_ZSt12__get_helperILm0EPNSt7__cxx1112basic_stringIcSt11char_traitsIcESaIcEEEJSt14default_deleteIS5_EEERKT0_RKSt11_Tuple_implIXT_EJS9_DpT1_EE
FNL:7,2443,2444
FNA:7,0,_ZSt3getILm0EJPNSt7__cxx1112basic_stringIcSt11char_traitsIcESaIcEEESt14default_deleteIS5_EEERNSt13tuple_elementIXT_ESt5tupleIJDpT0_EEE4typeERSD_
FNA:7,180,_ZSt3getILm0EJPNSt7__cxx1118basic_stringstreamIcSt11char_traitsIcESaIcEEESt14default_deleteIS5_EEERNSt13tuple_elementIXT_ESt5tupleIJDpT0_EEE4typeERSD_
FNA:7,0,_ZSt3getILm0EJRKNSt7__cxx1112basic_stringIcSt11char_traitsIcESaIcEEEEERNSt13tuple_elementIXT_ESt5tupleIJDpT0_EEE4typeERSC_
FNA:7,0,_ZSt3getILm0EJRKlEERNSt13tuple_elementIXT_ESt5tupleIJDpT0_EEE4typeERS6_
FNA:7,0,_ZSt3getILm1EJPNSt7__cxx1112basic_stringIcSt11char_traitsIcESaIcEEESt14default_deleteIS5_EEERNSt13tuple_elementIXT_ESt5tupleIJDpT0_EEE4typeERSD_
FNA:7,90,_ZSt3getILm1EJPNSt7__cxx1118basic_stringstreamIcSt11char_traitsIcESaIcEEESt14default_deleteIS5_EEERNSt13tuple_elementIXT_ESt5tupleIJDpT0_EEE4typeERSD_
FNL:8,2449,2450
FNA:8,0,_ZSt3getILm0EJPNSt7__cxx1112basic_stringIcSt11char_traitsIcESaIcEEESt14default_deleteIS5_EEERKNSt13tuple_elementIXT_ESt5tupleIJDpT0_EEE4typeERKSD_
FNL:9,245,245
FNA:9,0,_ZNSt10_Head_baseILm0EPNSt7__cxx1112basic_stringIcSt11char_traitsIcESaIcEEELb0EE7_M_headERKS7_
FNL:10,2872,2878
FNA:10,0,_ZNSt4pairIKNSt7__cxx1112basic_stringIcSt11char_traitsIcESaIcEEENS0_4listIS5_SaIS5_EEEEC1IJRS6_EJEEESt21piecewise_construct_tSt5tupleIJDpT_EESE_IJDpT0_EE
FNA:10,0,_ZNSt4pairIKNSt7__cxx1112basic_stringIcSt11char_traitsIcESaIcEEEbEC1IJRS6_EJEEESt21piecewise_construct_tSt5tupleIJDpT_EESB_IJDpT0_EE
FNA:10,0,_ZNSt4pairIKllEC1IJRS0_EJEEESt21piecewise_construct_tSt5tupleIJDpT_EES5_IJDpT0_EE
FNL:11,2884,2889
FNA:11,0,_ZNSt4pairIKNSt7__cxx1112basic_stringIcSt11char_traitsIcESaIcEEENS0_4listIS5_SaIS5_EEEEC1IJRS6_EJLm0EEJEJEEERSt5tupleIJDpT_EERSD_IJDpT1_EESt12_Index_tupleIJXspT0_EEESM_IJXspT2_EEE
FNA:11,0,_ZNSt4pairIKNSt7__cxx1112basic_stringIcSt11char_traitsIcESaIcEEEbEC1IJRS6_EJLm0EEJEJEEERSt5tupleIJDpT_EERSA_IJDpT1_EESt12_Index_tupleIJXspT0_EEESJ_IJXspT2_EEE
FNA:11,0,_ZNSt4pairIKllEC1IJRS0_EJLm0EEJEJEEERSt5tupleIJDpT_EERS4_IJDpT1_EESt12_Index_tupleIJXspT0_EEESD_IJXspT2_EEE
FNL:12,293,293
FNA:12,0,_ZNSt11_Tuple_implILm0EJPNSt7__cxx1112basic_stringIcSt11char_traitsIcESaIcEEESt14default_deleteIS5_EEE7_M_headERS9_
FNA:12,90,_ZNSt11_Tuple_implILm0EJPNSt7__cxx1118basic_stringstreamIcSt11char_traitsIcESaIcEEESt14default_deleteIS5_EEE7_M_headERS9_
FNL:13,296,296
FNA:13,0,_ZNSt11_Tuple_implILm0EJPNSt7__cxx1112basic_stringIcSt11char_traitsIcESaIcEEESt14default_deleteIS5_EEE7_M_headERKS9_
FNL:14,556,556
FNA:14,0,_ZNSt11_Tuple_implILm0EJRKNSt7__cxx1112basic_stringIcSt11char_traitsIcESaIcEEEEE7_M_headERS8_
FNA:14,0,_ZNSt11_Tuple_implILm0EJRKlEE7_M_headERS2_
FNA:14,0,_ZNSt11_Tuple_implILm1EJSt14default_deleteINSt7__cxx1112basic_stringIcSt11char_traitsIcESaIcEEEEEE7_M_headERS8_
FNA:14,90,_ZNSt11_Tuple_implILm1EJSt14default_deleteINSt7__cxx1118basic_stringstreamIcSt11char_traitsIcESaIcEEEEEE7_M_headERS8_
FNL:15,566,568
FNA:15,0,_ZNSt11_Tuple_implILm0EJRKNSt7__cxx1112basic_stringIcSt11char_traitsIcESaIcEEEEEC2ES7_
FNA:15,0,_ZNSt11_Tuple_implILm0EJRKlEEC2ES1_
FNL:16,586,589
FNA:16,0,_ZNSt11_Tuple_implILm0EJRKNSt7__cxx1112basic_stringIcSt11char_traitsIcESaIcEEEEEC2EOS8_
FNA:16,0,_ZNSt11_Tuple_implILm0EJRKlEEC2EOS2_
FNF:17
FNH:6
DA:133,90
DA:201,0
DA:202,0
DA:242,180
DA:245,0
DA:293,90
DA:296,0
DA:556,90
DA:566,0
DA:567,0
DA:568,0
DA:586,0
DA:588,0
DA:589,0
DA:1472,0
DA:1474,0
DA:1503,0
DA:2427,180
DA:2428,180
DA:2432,0
DA:2433,0
DA:2443,270
DA:2444,270
DA:2449,0
DA:2450,0
DA:2872,0
DA:2877,0
DA:2878,0
DA:2884,0
DA:2887,0
DA:2888,0
DA:2889,0
LF:32
LH:8
end_of_record
TN:
SF:/opt/local/include/gcc14/c++/type_traits
FNL:0,92,92
FNA:0,0,_ZNKSt17integral_constantIbLb1EEcvbEv
FNF:1
FNH:0
DA:92,0
LF:1
LH:0
end_of_record
TN:
SF:/opt/local/include/gcc14/c++/typeinfo
FNL:0,102,103
FNA:0,0,_ZNKSt9type_info4nameEv
FNL:1,192,209
FNA:1,0,_ZNKSt9type_infoeqERKS_
FNF:2
FNH:0
DA:102,0
DA:103,0
DA:192,0
DA:194,0
DA:195,0
DA:197,0
DA:198,0
DA:205,0
LF:8
LH:0
end_of_record
TN:
SF:/opt/local/include/gcc14/c++/x86_64-apple-darwin21/bits/c++config.h
FNF:0
FNH:0
DA:550,80
DA:606,0
LF:2
LH:1
end_of_record
TN:
SF:/opt/local/include/gcc14/c++/x86_64-apple-darwin21/bits/ctype_inline.h
FNL:0,42,49
FNA:0,0,_ZNKSt5ctypeIcE2isEmc
FNF:1
FNH:0
DA:42,0
DA:45,0
DA:46,0
DA:48,0
LF:4
LH:0
end_of_record
TN:
SF:/opt/local/include/gcc14/c++/x86_64-apple-darwin21/bits/gthr-default.h
FNL:0,313,316
FNA:0,0,_ZL18__gthread_active_pv
FNF:1
FNH:0
DA:313,0
DA:315,0
LF:2
LH:0
end_of_record
